

Microchip MPLAB XC8 Assembler V3.00 build 20241204225717 
                                                                                               Sun May 25 22:07:21 2025

Microchip MPLAB XC8 C Compiler v3.00 (Free license) build 20241204225717 Og1 
     1                           	processor	16F877A
     2                           	pagewidth 120
     3                           	opt	flic
     4                           	psect	idataCOMMON,global,class=CODE,space=0,delta=2,noexec
     5                           	psect	strings,global,class=STRING,space=0,delta=2,noexec
     6                           	psect	stringtext,global,reloc=256,class=STRCODE,space=0,delta=2,noexec
     7                           	psect	cinit,global,class=CODE,space=0,merge=1,delta=2
     8                           	psect	bssCOMMON,global,class=COMMON,space=1,delta=1,noexec
     9                           	psect	dataCOMMON,global,class=COMMON,space=1,delta=1,noexec
    10                           	psect	bssBANK0,global,class=BANK0,space=1,delta=1,noexec
    11                           	psect	clrtext,global,class=CODE,space=0,delta=2
    12                           	psect	cstackCOMMON,global,class=COMMON,space=1,delta=1,noexec
    13                           	psect	cstackBANK0,global,class=BANK0,space=1,delta=1,noexec
    14                           	psect	maintext,global,class=CODE,space=0,split=1,delta=2
    15                           	psect	text1,local,class=CODE,space=0,merge=1,delta=2
    16                           	psect	text2,local,class=CODE,space=0,merge=1,delta=2
    17                           	psect	text3,local,class=CODE,space=0,merge=1,delta=2
    18                           	psect	text4,local,class=CODE,space=0,merge=1,delta=2
    19                           	psect	text5,local,class=CODE,space=0,merge=1,delta=2
    20                           	psect	text6,local,class=CODE,space=0,merge=1,delta=2
    21                           	psect	text7,local,class=CODE,space=0,merge=1,delta=2
    22                           	psect	text8,local,class=CODE,space=0,merge=1,delta=2
    23                           	psect	text9,local,class=CODE,space=0,merge=1,delta=2
    24                           	psect	text10,local,class=CODE,space=0,merge=1,delta=2
    25                           	psect	text11,local,class=CODE,space=0,merge=1,delta=2
    26                           	psect	text12,local,class=CODE,space=0,merge=1,delta=2
    27                           	psect	text13,local,class=CODE,space=0,merge=1,delta=2
    28                           	psect	text14,local,class=CODE,space=0,merge=1,delta=2
    29                           	psect	text15,local,class=CODE,space=0,merge=1,delta=2,group=1
    30                           	psect	text16,local,class=CODE,space=0,merge=1,delta=2,group=1
    31                           	psect	text17,local,class=CODE,space=0,merge=1,delta=2,group=2
    32                           	psect	text18,local,class=CODE,space=0,merge=1,delta=2,group=1
    33                           	psect	text19,local,class=CODE,space=0,merge=1,delta=2,group=1
    34                           	psect	text20,local,class=CODE,space=0,merge=1,delta=2
    35                           	psect	text21,local,class=CODE,space=0,merge=1,delta=2
    36                           	psect	text22,local,class=CODE,space=0,merge=1,delta=2
    37                           	psect	text23,local,class=CODE,space=0,merge=1,delta=2
    38                           	psect	text24,local,class=CODE,space=0,merge=1,delta=2
    39                           	psect	text25,local,class=CODE,space=0,merge=1,delta=2,group=1
    40                           	psect	text26,local,class=CODE,space=0,merge=1,delta=2,group=1
    41                           	psect	text27,local,class=CODE,space=0,merge=1,delta=2
    42                           	psect	intentry,global,class=CODE,space=0,delta=2
    43                           	psect	idloc,global,abs,ovrld,class=IDLOC,space=5,delta=2,noexec
    44                           	psect	config,global,abs,ovrld,class=CONFIG,space=4,delta=2,noexec
    45                           	dabs	1,0x7E,2
    46     0000                     
    47                           ; Version 2.20
    48                           ; Generated 12/02/2020 GMT
    49                           ; 
    50                           ; Copyright © 2020, Microchip Technology Inc. and its subsidiaries ("Microchip")
    51                           ; All rights reserved.
    52                           ; 
    53                           ; This software is developed by Microchip Technology Inc. and its subsidiaries ("Microch
      +                          ip").
    54                           ; 
    55                           ; Redistribution and use in source and binary forms, with or without modification, are
    56                           ; permitted provided that the following conditions are met:
    57                           ; 
    58                           ;     1. Redistributions of source code must retain the above copyright notice, this lis
      +                          t of
    59                           ;        conditions and the following disclaimer.
    60                           ; 
    61                           ;     2. Redistributions in binary form must reproduce the above copyright notice, this 
      +                          list
    62                           ;        of conditions and the following disclaimer in the documentation and/or other
    63                           ;        materials provided with the distribution.
    64                           ; 
    65                           ;     3. Microchip's name may not be used to endorse or promote products derived from th
      +                          is
    66                           ;        software without specific prior written permission.
    67                           ; 
    68                           ; THIS SOFTWARE IS PROVIDED BY MICROCHIP "AS IS" AND ANY EXPRESS OR IMPLIED WARRANTIES,
    69                           ; INCLUDING, BUT NOT LIMITED TO, THE IMPLIED WARRANTIES OF MERCHANTABILITY AND FITNESS F
      +                          OR
    70                           ; PURPOSE ARE DISCLAIMED.  IN NO EVENT SHALL MICROCHIP BE LIABLE FOR ANY DIRECT, INDIREC
      +                          T,
    71                           ; INCIDENTAL, SPECIAL, EXEMPLARY, OR CONSEQUENTIAL DAMAGES (INCLUDING BUT NOT LIMITED TO
    72                           ; PROCUREMENT OF SUBSTITUTE GOODS OR SERVICES; LOSS OF USE, DATA OR PROFITS; OR BUSINESS
    73                           ; INTERRUPTION) HOWSOEVER CAUSED AND ON ANY THEORY OF LIABILITY, WHETHER IN CONTRACT, ST
      +                          RICT
    74                           ; LIABILITY, OR TORT (INCLUDING NEGLIGENCE OR OTHERWISE) ARISING IN ANY WAY OUT OF THE U
      +                          SE OF
    75                           ; THIS SOFTWARE, EVEN IF ADVISED OF THE POSSIBILITY OF SUCH DAMAGE.
    76                           ; 
    77                           ; 
    78                           ; Code-generator required, PIC16F877A Definitions
    79                           ; 
    80                           ; SFR Addresses
    81     0004                     fsr             equ	4
    82     0004                     fsr0            equ	4
    83     0000                     indf            equ	0
    84     0000                     indf0           equ	0
    85     0002                     pc              equ	2
    86     0002                     pcl             equ	2
    87     000A                     pclath          equ	10
    88     0003                     status          equ	3
    89     0000                     INDF            equ	0	;# 
    90     0001                     TMR0            equ	1	;# 
    91     0002                     PCL             equ	2	;# 
    92     0003                     STATUS          equ	3	;# 
    93     0004                     FSR             equ	4	;# 
    94     0005                     PORTA           equ	5	;# 
    95     0006                     PORTB           equ	6	;# 
    96     0007                     PORTC           equ	7	;# 
    97     0008                     PORTD           equ	8	;# 
    98     0009                     PORTE           equ	9	;# 
    99     000A                     PCLATH          equ	10	;# 
   100     000B                     INTCON          equ	11	;# 
   101     000C                     PIR1            equ	12	;# 
   102     000D                     PIR2            equ	13	;# 
   103     000E                     TMR1            equ	14	;# 
   104     000E                     TMR1L           equ	14	;# 
   105     000F                     TMR1H           equ	15	;# 
   106     0010                     T1CON           equ	16	;# 
   107     0011                     TMR2            equ	17	;# 
   108     0012                     T2CON           equ	18	;# 
   109     0013                     SSPBUF          equ	19	;# 
   110     0014                     SSPCON          equ	20	;# 
   111     0015                     CCPR1           equ	21	;# 
   112     0015                     CCPR1L          equ	21	;# 
   113     0016                     CCPR1H          equ	22	;# 
   114     0017                     CCP1CON         equ	23	;# 
   115     0018                     RCSTA           equ	24	;# 
   116     0019                     TXREG           equ	25	;# 
   117     001A                     RCREG           equ	26	;# 
   118     001B                     CCPR2           equ	27	;# 
   119     001B                     CCPR2L          equ	27	;# 
   120     001C                     CCPR2H          equ	28	;# 
   121     001D                     CCP2CON         equ	29	;# 
   122     001E                     ADRESH          equ	30	;# 
   123     001F                     ADCON0          equ	31	;# 
   124     0081                     OPTION_REG      equ	129	;# 
   125     0085                     TRISA           equ	133	;# 
   126     0086                     TRISB           equ	134	;# 
   127     0087                     TRISC           equ	135	;# 
   128     0088                     TRISD           equ	136	;# 
   129     0089                     TRISE           equ	137	;# 
   130     008C                     PIE1            equ	140	;# 
   131     008D                     PIE2            equ	141	;# 
   132     008E                     PCON            equ	142	;# 
   133     0091                     SSPCON2         equ	145	;# 
   134     0092                     PR2             equ	146	;# 
   135     0093                     SSPADD          equ	147	;# 
   136     0094                     SSPSTAT         equ	148	;# 
   137     0098                     TXSTA           equ	152	;# 
   138     0099                     SPBRG           equ	153	;# 
   139     009C                     CMCON           equ	156	;# 
   140     009D                     CVRCON          equ	157	;# 
   141     009E                     ADRESL          equ	158	;# 
   142     009F                     ADCON1          equ	159	;# 
   143     010C                     EEDATA          equ	268	;# 
   144     010D                     EEADR           equ	269	;# 
   145     010E                     EEDATH          equ	270	;# 
   146     010F                     EEADRH          equ	271	;# 
   147     018C                     EECON1          equ	396	;# 
   148     018D                     EECON2          equ	397	;# 
   149     0000                     INDF            equ	0	;# 
   150     0001                     TMR0            equ	1	;# 
   151     0002                     PCL             equ	2	;# 
   152     0003                     STATUS          equ	3	;# 
   153     0004                     FSR             equ	4	;# 
   154     0005                     PORTA           equ	5	;# 
   155     0006                     PORTB           equ	6	;# 
   156     0007                     PORTC           equ	7	;# 
   157     0008                     PORTD           equ	8	;# 
   158     0009                     PORTE           equ	9	;# 
   159     000A                     PCLATH          equ	10	;# 
   160     000B                     INTCON          equ	11	;# 
   161     000C                     PIR1            equ	12	;# 
   162     000D                     PIR2            equ	13	;# 
   163     000E                     TMR1            equ	14	;# 
   164     000E                     TMR1L           equ	14	;# 
   165     000F                     TMR1H           equ	15	;# 
   166     0010                     T1CON           equ	16	;# 
   167     0011                     TMR2            equ	17	;# 
   168     0012                     T2CON           equ	18	;# 
   169     0013                     SSPBUF          equ	19	;# 
   170     0014                     SSPCON          equ	20	;# 
   171     0015                     CCPR1           equ	21	;# 
   172     0015                     CCPR1L          equ	21	;# 
   173     0016                     CCPR1H          equ	22	;# 
   174     0017                     CCP1CON         equ	23	;# 
   175     0018                     RCSTA           equ	24	;# 
   176     0019                     TXREG           equ	25	;# 
   177     001A                     RCREG           equ	26	;# 
   178     001B                     CCPR2           equ	27	;# 
   179     001B                     CCPR2L          equ	27	;# 
   180     001C                     CCPR2H          equ	28	;# 
   181     001D                     CCP2CON         equ	29	;# 
   182     001E                     ADRESH          equ	30	;# 
   183     001F                     ADCON0          equ	31	;# 
   184     0081                     OPTION_REG      equ	129	;# 
   185     0085                     TRISA           equ	133	;# 
   186     0086                     TRISB           equ	134	;# 
   187     0087                     TRISC           equ	135	;# 
   188     0088                     TRISD           equ	136	;# 
   189     0089                     TRISE           equ	137	;# 
   190     008C                     PIE1            equ	140	;# 
   191     008D                     PIE2            equ	141	;# 
   192     008E                     PCON            equ	142	;# 
   193     0091                     SSPCON2         equ	145	;# 
   194     0092                     PR2             equ	146	;# 
   195     0093                     SSPADD          equ	147	;# 
   196     0094                     SSPSTAT         equ	148	;# 
   197     0098                     TXSTA           equ	152	;# 
   198     0099                     SPBRG           equ	153	;# 
   199     009C                     CMCON           equ	156	;# 
   200     009D                     CVRCON          equ	157	;# 
   201     009E                     ADRESL          equ	158	;# 
   202     009F                     ADCON1          equ	159	;# 
   203     010C                     EEDATA          equ	268	;# 
   204     010D                     EEADR           equ	269	;# 
   205     010E                     EEDATH          equ	270	;# 
   206     010F                     EEADRH          equ	271	;# 
   207     018C                     EECON1          equ	396	;# 
   208     018D                     EECON2          equ	397	;# 
   209     0000                     INDF            equ	0	;# 
   210     0001                     TMR0            equ	1	;# 
   211     0002                     PCL             equ	2	;# 
   212     0003                     STATUS          equ	3	;# 
   213     0004                     FSR             equ	4	;# 
   214     0005                     PORTA           equ	5	;# 
   215     0006                     PORTB           equ	6	;# 
   216     0007                     PORTC           equ	7	;# 
   217     0008                     PORTD           equ	8	;# 
   218     0009                     PORTE           equ	9	;# 
   219     000A                     PCLATH          equ	10	;# 
   220     000B                     INTCON          equ	11	;# 
   221     000C                     PIR1            equ	12	;# 
   222     000D                     PIR2            equ	13	;# 
   223     000E                     TMR1            equ	14	;# 
   224     000E                     TMR1L           equ	14	;# 
   225     000F                     TMR1H           equ	15	;# 
   226     0010                     T1CON           equ	16	;# 
   227     0011                     TMR2            equ	17	;# 
   228     0012                     T2CON           equ	18	;# 
   229     0013                     SSPBUF          equ	19	;# 
   230     0014                     SSPCON          equ	20	;# 
   231     0015                     CCPR1           equ	21	;# 
   232     0015                     CCPR1L          equ	21	;# 
   233     0016                     CCPR1H          equ	22	;# 
   234     0017                     CCP1CON         equ	23	;# 
   235     0018                     RCSTA           equ	24	;# 
   236     0019                     TXREG           equ	25	;# 
   237     001A                     RCREG           equ	26	;# 
   238     001B                     CCPR2           equ	27	;# 
   239     001B                     CCPR2L          equ	27	;# 
   240     001C                     CCPR2H          equ	28	;# 
   241     001D                     CCP2CON         equ	29	;# 
   242     001E                     ADRESH          equ	30	;# 
   243     001F                     ADCON0          equ	31	;# 
   244     0081                     OPTION_REG      equ	129	;# 
   245     0085                     TRISA           equ	133	;# 
   246     0086                     TRISB           equ	134	;# 
   247     0087                     TRISC           equ	135	;# 
   248     0088                     TRISD           equ	136	;# 
   249     0089                     TRISE           equ	137	;# 
   250     008C                     PIE1            equ	140	;# 
   251     008D                     PIE2            equ	141	;# 
   252     008E                     PCON            equ	142	;# 
   253     0091                     SSPCON2         equ	145	;# 
   254     0092                     PR2             equ	146	;# 
   255     0093                     SSPADD          equ	147	;# 
   256     0094                     SSPSTAT         equ	148	;# 
   257     0098                     TXSTA           equ	152	;# 
   258     0099                     SPBRG           equ	153	;# 
   259     009C                     CMCON           equ	156	;# 
   260     009D                     CVRCON          equ	157	;# 
   261     009E                     ADRESL          equ	158	;# 
   262     009F                     ADCON1          equ	159	;# 
   263     010C                     EEDATA          equ	268	;# 
   264     010D                     EEADR           equ	269	;# 
   265     010E                     EEDATH          equ	270	;# 
   266     010F                     EEADRH          equ	271	;# 
   267     018C                     EECON1          equ	396	;# 
   268     018D                     EECON2          equ	397	;# 
   269     0000                     INDF            equ	0	;# 
   270     0001                     TMR0            equ	1	;# 
   271     0002                     PCL             equ	2	;# 
   272     0003                     STATUS          equ	3	;# 
   273     0004                     FSR             equ	4	;# 
   274     0005                     PORTA           equ	5	;# 
   275     0006                     PORTB           equ	6	;# 
   276     0007                     PORTC           equ	7	;# 
   277     0008                     PORTD           equ	8	;# 
   278     0009                     PORTE           equ	9	;# 
   279     000A                     PCLATH          equ	10	;# 
   280     000B                     INTCON          equ	11	;# 
   281     000C                     PIR1            equ	12	;# 
   282     000D                     PIR2            equ	13	;# 
   283     000E                     TMR1            equ	14	;# 
   284     000E                     TMR1L           equ	14	;# 
   285     000F                     TMR1H           equ	15	;# 
   286     0010                     T1CON           equ	16	;# 
   287     0011                     TMR2            equ	17	;# 
   288     0012                     T2CON           equ	18	;# 
   289     0013                     SSPBUF          equ	19	;# 
   290     0014                     SSPCON          equ	20	;# 
   291     0015                     CCPR1           equ	21	;# 
   292     0015                     CCPR1L          equ	21	;# 
   293     0016                     CCPR1H          equ	22	;# 
   294     0017                     CCP1CON         equ	23	;# 
   295     0018                     RCSTA           equ	24	;# 
   296     0019                     TXREG           equ	25	;# 
   297     001A                     RCREG           equ	26	;# 
   298     001B                     CCPR2           equ	27	;# 
   299     001B                     CCPR2L          equ	27	;# 
   300     001C                     CCPR2H          equ	28	;# 
   301     001D                     CCP2CON         equ	29	;# 
   302     001E                     ADRESH          equ	30	;# 
   303     001F                     ADCON0          equ	31	;# 
   304     0081                     OPTION_REG      equ	129	;# 
   305     0085                     TRISA           equ	133	;# 
   306     0086                     TRISB           equ	134	;# 
   307     0087                     TRISC           equ	135	;# 
   308     0088                     TRISD           equ	136	;# 
   309     0089                     TRISE           equ	137	;# 
   310     008C                     PIE1            equ	140	;# 
   311     008D                     PIE2            equ	141	;# 
   312     008E                     PCON            equ	142	;# 
   313     0091                     SSPCON2         equ	145	;# 
   314     0092                     PR2             equ	146	;# 
   315     0093                     SSPADD          equ	147	;# 
   316     0094                     SSPSTAT         equ	148	;# 
   317     0098                     TXSTA           equ	152	;# 
   318     0099                     SPBRG           equ	153	;# 
   319     009C                     CMCON           equ	156	;# 
   320     009D                     CVRCON          equ	157	;# 
   321     009E                     ADRESL          equ	158	;# 
   322     009F                     ADCON1          equ	159	;# 
   323     010C                     EEDATA          equ	268	;# 
   324     010D                     EEADR           equ	269	;# 
   325     010E                     EEDATH          equ	270	;# 
   326     010F                     EEADRH          equ	271	;# 
   327     018C                     EECON1          equ	396	;# 
   328     018D                     EECON2          equ	397	;# 
   329     0000                     INDF            equ	0	;# 
   330     0001                     TMR0            equ	1	;# 
   331     0002                     PCL             equ	2	;# 
   332     0003                     STATUS          equ	3	;# 
   333     0004                     FSR             equ	4	;# 
   334     0005                     PORTA           equ	5	;# 
   335     0006                     PORTB           equ	6	;# 
   336     0007                     PORTC           equ	7	;# 
   337     0008                     PORTD           equ	8	;# 
   338     0009                     PORTE           equ	9	;# 
   339     000A                     PCLATH          equ	10	;# 
   340     000B                     INTCON          equ	11	;# 
   341     000C                     PIR1            equ	12	;# 
   342     000D                     PIR2            equ	13	;# 
   343     000E                     TMR1            equ	14	;# 
   344     000E                     TMR1L           equ	14	;# 
   345     000F                     TMR1H           equ	15	;# 
   346     0010                     T1CON           equ	16	;# 
   347     0011                     TMR2            equ	17	;# 
   348     0012                     T2CON           equ	18	;# 
   349     0013                     SSPBUF          equ	19	;# 
   350     0014                     SSPCON          equ	20	;# 
   351     0015                     CCPR1           equ	21	;# 
   352     0015                     CCPR1L          equ	21	;# 
   353     0016                     CCPR1H          equ	22	;# 
   354     0017                     CCP1CON         equ	23	;# 
   355     0018                     RCSTA           equ	24	;# 
   356     0019                     TXREG           equ	25	;# 
   357     001A                     RCREG           equ	26	;# 
   358     001B                     CCPR2           equ	27	;# 
   359     001B                     CCPR2L          equ	27	;# 
   360     001C                     CCPR2H          equ	28	;# 
   361     001D                     CCP2CON         equ	29	;# 
   362     001E                     ADRESH          equ	30	;# 
   363     001F                     ADCON0          equ	31	;# 
   364     0081                     OPTION_REG      equ	129	;# 
   365     0085                     TRISA           equ	133	;# 
   366     0086                     TRISB           equ	134	;# 
   367     0087                     TRISC           equ	135	;# 
   368     0088                     TRISD           equ	136	;# 
   369     0089                     TRISE           equ	137	;# 
   370     008C                     PIE1            equ	140	;# 
   371     008D                     PIE2            equ	141	;# 
   372     008E                     PCON            equ	142	;# 
   373     0091                     SSPCON2         equ	145	;# 
   374     0092                     PR2             equ	146	;# 
   375     0093                     SSPADD          equ	147	;# 
   376     0094                     SSPSTAT         equ	148	;# 
   377     0098                     TXSTA           equ	152	;# 
   378     0099                     SPBRG           equ	153	;# 
   379     009C                     CMCON           equ	156	;# 
   380     009D                     CVRCON          equ	157	;# 
   381     009E                     ADRESL          equ	158	;# 
   382     009F                     ADCON1          equ	159	;# 
   383     010C                     EEDATA          equ	268	;# 
   384     010D                     EEADR           equ	269	;# 
   385     010E                     EEDATH          equ	270	;# 
   386     010F                     EEADRH          equ	271	;# 
   387     018C                     EECON1          equ	396	;# 
   388     018D                     EECON2          equ	397	;# 
   389     0000                     INDF            equ	0	;# 
   390     0001                     TMR0            equ	1	;# 
   391     0002                     PCL             equ	2	;# 
   392     0003                     STATUS          equ	3	;# 
   393     0004                     FSR             equ	4	;# 
   394     0005                     PORTA           equ	5	;# 
   395     0006                     PORTB           equ	6	;# 
   396     0007                     PORTC           equ	7	;# 
   397     0008                     PORTD           equ	8	;# 
   398     0009                     PORTE           equ	9	;# 
   399     000A                     PCLATH          equ	10	;# 
   400     000B                     INTCON          equ	11	;# 
   401     000C                     PIR1            equ	12	;# 
   402     000D                     PIR2            equ	13	;# 
   403     000E                     TMR1            equ	14	;# 
   404     000E                     TMR1L           equ	14	;# 
   405     000F                     TMR1H           equ	15	;# 
   406     0010                     T1CON           equ	16	;# 
   407     0011                     TMR2            equ	17	;# 
   408     0012                     T2CON           equ	18	;# 
   409     0013                     SSPBUF          equ	19	;# 
   410     0014                     SSPCON          equ	20	;# 
   411     0015                     CCPR1           equ	21	;# 
   412     0015                     CCPR1L          equ	21	;# 
   413     0016                     CCPR1H          equ	22	;# 
   414     0017                     CCP1CON         equ	23	;# 
   415     0018                     RCSTA           equ	24	;# 
   416     0019                     TXREG           equ	25	;# 
   417     001A                     RCREG           equ	26	;# 
   418     001B                     CCPR2           equ	27	;# 
   419     001B                     CCPR2L          equ	27	;# 
   420     001C                     CCPR2H          equ	28	;# 
   421     001D                     CCP2CON         equ	29	;# 
   422     001E                     ADRESH          equ	30	;# 
   423     001F                     ADCON0          equ	31	;# 
   424     0081                     OPTION_REG      equ	129	;# 
   425     0085                     TRISA           equ	133	;# 
   426     0086                     TRISB           equ	134	;# 
   427     0087                     TRISC           equ	135	;# 
   428     0088                     TRISD           equ	136	;# 
   429     0089                     TRISE           equ	137	;# 
   430     008C                     PIE1            equ	140	;# 
   431     008D                     PIE2            equ	141	;# 
   432     008E                     PCON            equ	142	;# 
   433     0091                     SSPCON2         equ	145	;# 
   434     0092                     PR2             equ	146	;# 
   435     0093                     SSPADD          equ	147	;# 
   436     0094                     SSPSTAT         equ	148	;# 
   437     0098                     TXSTA           equ	152	;# 
   438     0099                     SPBRG           equ	153	;# 
   439     009C                     CMCON           equ	156	;# 
   440     009D                     CVRCON          equ	157	;# 
   441     009E                     ADRESL          equ	158	;# 
   442     009F                     ADCON1          equ	159	;# 
   443     010C                     EEDATA          equ	268	;# 
   444     010D                     EEADR           equ	269	;# 
   445     010E                     EEDATH          equ	270	;# 
   446     010F                     EEADRH          equ	271	;# 
   447     018C                     EECON1          equ	396	;# 
   448     018D                     EECON2          equ	397	;# 
   449     0000                     INDF            equ	0	;# 
   450     0001                     TMR0            equ	1	;# 
   451     0002                     PCL             equ	2	;# 
   452     0003                     STATUS          equ	3	;# 
   453     0004                     FSR             equ	4	;# 
   454     0005                     PORTA           equ	5	;# 
   455     0006                     PORTB           equ	6	;# 
   456     0007                     PORTC           equ	7	;# 
   457     0008                     PORTD           equ	8	;# 
   458     0009                     PORTE           equ	9	;# 
   459     000A                     PCLATH          equ	10	;# 
   460     000B                     INTCON          equ	11	;# 
   461     000C                     PIR1            equ	12	;# 
   462     000D                     PIR2            equ	13	;# 
   463     000E                     TMR1            equ	14	;# 
   464     000E                     TMR1L           equ	14	;# 
   465     000F                     TMR1H           equ	15	;# 
   466     0010                     T1CON           equ	16	;# 
   467     0011                     TMR2            equ	17	;# 
   468     0012                     T2CON           equ	18	;# 
   469     0013                     SSPBUF          equ	19	;# 
   470     0014                     SSPCON          equ	20	;# 
   471     0015                     CCPR1           equ	21	;# 
   472     0015                     CCPR1L          equ	21	;# 
   473     0016                     CCPR1H          equ	22	;# 
   474     0017                     CCP1CON         equ	23	;# 
   475     0018                     RCSTA           equ	24	;# 
   476     0019                     TXREG           equ	25	;# 
   477     001A                     RCREG           equ	26	;# 
   478     001B                     CCPR2           equ	27	;# 
   479     001B                     CCPR2L          equ	27	;# 
   480     001C                     CCPR2H          equ	28	;# 
   481     001D                     CCP2CON         equ	29	;# 
   482     001E                     ADRESH          equ	30	;# 
   483     001F                     ADCON0          equ	31	;# 
   484     0081                     OPTION_REG      equ	129	;# 
   485     0085                     TRISA           equ	133	;# 
   486     0086                     TRISB           equ	134	;# 
   487     0087                     TRISC           equ	135	;# 
   488     0088                     TRISD           equ	136	;# 
   489     0089                     TRISE           equ	137	;# 
   490     008C                     PIE1            equ	140	;# 
   491     008D                     PIE2            equ	141	;# 
   492     008E                     PCON            equ	142	;# 
   493     0091                     SSPCON2         equ	145	;# 
   494     0092                     PR2             equ	146	;# 
   495     0093                     SSPADD          equ	147	;# 
   496     0094                     SSPSTAT         equ	148	;# 
   497     0098                     TXSTA           equ	152	;# 
   498     0099                     SPBRG           equ	153	;# 
   499     009C                     CMCON           equ	156	;# 
   500     009D                     CVRCON          equ	157	;# 
   501     009E                     ADRESL          equ	158	;# 
   502     009F                     ADCON1          equ	159	;# 
   503     010C                     EEDATA          equ	268	;# 
   504     010D                     EEADR           equ	269	;# 
   505     010E                     EEDATH          equ	270	;# 
   506     010F                     EEADRH          equ	271	;# 
   507     018C                     EECON1          equ	396	;# 
   508     018D                     EECON2          equ	397	;# 
   509                           
   510                           	psect	idataCOMMON
   511     04FF                     __pidataCOMMON:
   512                           
   513                           ;initializer for read_matrix_keypad@once
   514     04FF  3401               	retlw	1
   515     0001                     _TMR0           set	1
   516     0008                     _PORTD          set	8
   517     0091                     _T2CKPS1        set	145
   518     0090                     _T2CKPS0        set	144
   519     005D                     _TMR0IE         set	93
   520     0039                     _RC1            set	57
   521     003A                     _RC2            set	58
   522     0092                     _TMR2ON         set	146
   523     0032                     _RB2            set	50
   524     0031                     _RB1            set	49
   525     0030                     _RB0            set	48
   526     0040                     _RD0            set	64
   527     0041                     _RD1            set	65
   528     0042                     _RD2            set	66
   529     0043                     _RD3            set	67
   530     005F                     _GIE            set	95
   531     005E                     _PEIE           set	94
   532     0061                     _TMR2IF         set	97
   533     0049                     _RE1            set	73
   534     004A                     _RE2            set	74
   535     0092                     _PR2            set	146
   536     0086                     _TRISB          set	134
   537     0088                     _TRISD          set	136
   538     0461                     _TMR2IE         set	1121
   539     040B                     _PSA            set	1035
   540     040D                     _T0CS           set	1037
   541     040F                     _nRBPU          set	1039
   542     043A                     _TRISC2         set	1082
   543     0439                     _TRISC1         set	1081
   544     0449                     _TRISE1         set	1097
   545     044A                     _TRISE2         set	1098
   546                           
   547                           	psect	strings
   548     0800                     __pstrings:
   549     0800                     stringtab:
   550     0800                     __stringtab:
   551                           
   552                           ;	String table - string pointers are 2 bytes each
   553     0800  1BFF               	btfsc	btemp+1,7
   554     0801  280A               	ljmp	stringcode
   555     0802  1383               	bcf	3,7
   556     0803  187F               	btfsc	btemp+1,0
   557     0804  1783               	bsf	3,7
   558     0805  0800               	movf	0,w
   559     0806  0A84               	incf	4,f
   560     0807  1903               	skipnz
   561     0808  0AFF               	incf	btemp+1,f
   562     0809  0008               	return
   563     080A                     stringcode:
   564     080A  087F               	movf	btemp+1,w
   565     080B  397F               	andlw	127
   566     080C  008A               	movwf	10
   567     080D  0804               	movf	4,w
   568     080E  0A84               	incf	4,f
   569     080F  1903               	skipnz
   570     0810  0AFF               	incf	btemp+1,f
   571     0811  0082               	movwf	2
   572     0812                     __stringbase:
   573     0812                     __end_of__stringtab:
   574                           
   575                           	psect	stringtext
   576     0500                     __pstringtext:
   577     0500                     STR_11:
   578     0500  3420               	retlw	32	;' '
   579     0501  3420               	retlw	32	;' '
   580     0502  3420               	retlw	32	;' '
   581     0503  3420               	retlw	32	;' '
   582     0504  3420               	retlw	32	;' '
   583     0505  3420               	retlw	32	;' '
   584     0506  3420               	retlw	32	;' '
   585     0507  3420               	retlw	32	;' '
   586     0508  3420               	retlw	32	;' '
   587     0509  3420               	retlw	32	;' '
   588     050A  3420               	retlw	32	;' '
   589     050B  3420               	retlw	32	;' '
   590     050C  3420               	retlw	32	;' '
   591     050D  3420               	retlw	32	;' '
   592     050E  3420               	retlw	32	;' '
   593     050F  3420               	retlw	32	;' '
   594     0510  3400               	retlw	0
   595     0511                     STR_10:
   596     0511  3453               	retlw	83	;'S'
   597     0512  3445               	retlw	69	;'E'
   598     0513  3443               	retlw	67	;'C'
   599     0514  3453               	retlw	83	;'S'
   600     0515  3420               	retlw	32	;' '
   601     0516  3453               	retlw	83	;'S'
   602     0517  3468               	retlw	104	;'h'
   603     0518  346F               	retlw	111	;'o'
   604     0519  3475               	retlw	117	;'u'
   605     051A  346C               	retlw	108	;'l'
   606     051B  3464               	retlw	100	;'d'
   607     051C  3420               	retlw	32	;' '
   608     051D  343C               	retlw	60	;'<'
   609     051E  3420               	retlw	32	;' '
   610     051F  3436               	retlw	54	;'6'
   611     0520  3430               	retlw	48	;'0'
   612     0521  3400               	retlw	0
   613     0522                     STR_7:
   614     0522  3453               	retlw	83	;'S'
   615     0523  3445               	retlw	69	;'E'
   616     0524  3454               	retlw	84	;'T'
   617     0525  3420               	retlw	32	;' '
   618     0526  3454               	retlw	84	;'T'
   619     0527  3449               	retlw	73	;'I'
   620     0528  344D               	retlw	77	;'M'
   621     0529  3445               	retlw	69	;'E'
   622     052A  3420               	retlw	32	;' '
   623     052B  343C               	retlw	60	;'<'
   624     052C  344D               	retlw	77	;'M'
   625     052D  344D               	retlw	77	;'M'
   626     052E  343A               	retlw	58	;':'
   627     052F  3453               	retlw	83	;'S'
   628     0530  3453               	retlw	83	;'S'
   629     0531  343E               	retlw	62	;'>'
   630     0532  3400               	retlw	0
   631     0533                     STR_9:
   632     0533  342A               	retlw	42	;'*'
   633     0534  343A               	retlw	58	;':'
   634     0535  3443               	retlw	67	;'C'
   635     0536  344C               	retlw	76	;'L'
   636     0537  3445               	retlw	69	;'E'
   637     0538  3441               	retlw	65	;'A'
   638     0539  3452               	retlw	82	;'R'
   639     053A  3420               	retlw	32	;' '
   640     053B  3420               	retlw	32	;' '
   641     053C  3420               	retlw	32	;' '
   642     053D  3423               	retlw	35	;'#'
   643     053E  3445               	retlw	69	;'E'
   644     053F  344E               	retlw	78	;'N'
   645     0540  3454               	retlw	84	;'T'
   646     0541  3445               	retlw	69	;'E'
   647     0542  3452               	retlw	82	;'R'
   648     0543  3400               	retlw	0
   649     0544                     STR_22:
   650     0544  342A               	retlw	42	;'*'
   651     0545  343A               	retlw	58	;':'
   652     0546  3443               	retlw	67	;'C'
   653     0547  344C               	retlw	76	;'L'
   654     0548  3445               	retlw	69	;'E'
   655     0549  3441               	retlw	65	;'A'
   656     054A  3452               	retlw	82	;'R'
   657     054B  3420               	retlw	32	;' '
   658     054C  3420               	retlw	32	;' '
   659     054D  3423               	retlw	35	;'#'
   660     054E  343A               	retlw	58	;':'
   661     054F  3445               	retlw	69	;'E'
   662     0550  344E               	retlw	78	;'N'
   663     0551  3454               	retlw	84	;'T'
   664     0552  3445               	retlw	69	;'E'
   665     0553  3452               	retlw	82	;'R'
   666     0554  3400               	retlw	0
   667     0555                     STR_19:
   668     0555  3420               	retlw	32	;' '
   669     0556  3445               	retlw	69	;'E'
   670     0557  346E               	retlw	110	;'n'
   671     0558  346A               	retlw	106	;'j'
   672     0559  346F               	retlw	111	;'o'
   673     055A  3479               	retlw	121	;'y'
   674     055B  3420               	retlw	32	;' '
   675     055C  3479               	retlw	121	;'y'
   676     055D  346F               	retlw	111	;'o'
   677     055E  3475               	retlw	117	;'u'
   678     055F  3472               	retlw	114	;'r'
   679     0560  3420               	retlw	32	;' '
   680     0561  346D               	retlw	109	;'m'
   681     0562  3465               	retlw	101	;'e'
   682     0563  3461               	retlw	97	;'a'
   683     0564  346C               	retlw	108	;'l'
   684     0565  3400               	retlw	0
   685     0566                     STR_4:
   686     0566  3431               	retlw	49	;'1'
   687     0567  342E               	retlw	46	;'.'
   688     0568  344D               	retlw	77	;'M'
   689     0569  3469               	retlw	105	;'i'
   690     056A  3463               	retlw	99	;'c'
   691     056B  3472               	retlw	114	;'r'
   692     056C  346F               	retlw	111	;'o'
   693     056D  3420               	retlw	32	;' '
   694     056E  3432               	retlw	50	;'2'
   695     056F  342E               	retlw	46	;'.'
   696     0570  3447               	retlw	71	;'G'
   697     0571  3472               	retlw	114	;'r'
   698     0572  3469               	retlw	105	;'i'
   699     0573  346C               	retlw	108	;'l'
   700     0574  346C               	retlw	108	;'l'
   701     0575  3400               	retlw	0
   702     0576                     STR_5:
   703     0576  3433               	retlw	51	;'3'
   704     0577  342E               	retlw	46	;'.'
   705     0578  3443               	retlw	67	;'C'
   706     0579  346F               	retlw	111	;'o'
   707     057A  346E               	retlw	110	;'n'
   708     057B  3476               	retlw	118	;'v'
   709     057C  3420               	retlw	32	;' '
   710     057D  3434               	retlw	52	;'4'
   711     057E  342E               	retlw	46	;'.'
   712     057F  3452               	retlw	82	;'R'
   713     0580  3465               	retlw	101	;'e'
   714     0581  3468               	retlw	104	;'h'
   715     0582  3465               	retlw	101	;'e'
   716     0583  3461               	retlw	97	;'a'
   717     0584  3474               	retlw	116	;'t'
   718     0585  3400               	retlw	0
   719     0586                     STR_2:
   720     0586  344D               	retlw	77	;'M'
   721     0587  3469               	retlw	105	;'i'
   722     0588  3463               	retlw	99	;'c'
   723     0589  3472               	retlw	114	;'r'
   724     058A  346F               	retlw	111	;'o'
   725     058B  3477               	retlw	119	;'w'
   726     058C  3461               	retlw	97	;'a'
   727     058D  3476               	retlw	118	;'v'
   728     058E  3465               	retlw	101	;'e'
   729     058F  3420               	retlw	32	;' '
   730     0590  346F               	retlw	111	;'o'
   731     0591  3476               	retlw	118	;'v'
   732     0592  3465               	retlw	101	;'e'
   733     0593  346E               	retlw	110	;'n'
   734     0594  3400               	retlw	0
   735     0595                     STR_20:
   736     0595  3453               	retlw	83	;'S'
   737     0596  3445               	retlw	69	;'E'
   738     0597  3454               	retlw	84	;'T'
   739     0598  3420               	retlw	32	;' '
   740     0599  3454               	retlw	84	;'T'
   741     059A  3465               	retlw	101	;'e'
   742     059B  346D               	retlw	109	;'m'
   743     059C  3470               	retlw	112	;'p'
   744     059D  3420               	retlw	32	;' '
   745     059E  343C               	retlw	60	;'<'
   746     059F  342A               	retlw	42	;'*'
   747     05A0  3443               	retlw	67	;'C'
   748     05A1  343E               	retlw	62	;'>'
   749     05A2  3400               	retlw	0
   750     05A3                     STR_6:
   751     05A3  3450               	retlw	80	;'P'
   752     05A4  346F               	retlw	111	;'o'
   753     05A5  3477               	retlw	119	;'w'
   754     05A6  3465               	retlw	101	;'e'
   755     05A7  3472               	retlw	114	;'r'
   756     05A8  3420               	retlw	32	;' '
   757     05A9  343D               	retlw	61	;'='
   758     05AA  3420               	retlw	32	;' '
   759     05AB  3439               	retlw	57	;'9'
   760     05AC  3430               	retlw	48	;'0'
   761     05AD  3430               	retlw	48	;'0'
   762     05AE  3457               	retlw	87	;'W'
   763     05AF  3400               	retlw	0
   764     05B0                     STR_24:
   765     05B0  3454               	retlw	84	;'T'
   766     05B1  3469               	retlw	105	;'i'
   767     05B2  346D               	retlw	109	;'m'
   768     05B3  3465               	retlw	101	;'e'
   769     05B4  3420               	retlw	32	;' '
   770     05B5  346C               	retlw	108	;'l'
   771     05B6  3465               	retlw	101	;'e'
   772     05B7  3466               	retlw	102	;'f'
   773     05B8  3474               	retlw	116	;'t'
   774     05B9  343A               	retlw	58	;':'
   775     05BA  3420               	retlw	32	;' '
   776     05BB  3400               	retlw	0
   777     05BC                     STR_18:
   778     05BC  3454               	retlw	84	;'T'
   779     05BD  3449               	retlw	73	;'I'
   780     05BE  344D               	retlw	77	;'M'
   781     05BF  3445               	retlw	69	;'E'
   782     05C0  3420               	retlw	32	;' '
   783     05C1  3455               	retlw	85	;'U'
   784     05C2  3450               	retlw	80	;'P'
   785     05C3  3420               	retlw	32	;' '
   786     05C4  3421               	retlw	33	;'!'
   787     05C5  3421               	retlw	33	;'!'
   788     05C6  3421               	retlw	33	;'!'
   789     05C7  3400               	retlw	0
   790     05C8                     STR_23:
   791     05C8  3450               	retlw	80	;'P'
   792     05C9  3472               	retlw	114	;'r'
   793     05CA  3465               	retlw	101	;'e'
   794     05CB  342D               	retlw	45	;'-'
   795     05CC  3468               	retlw	104	;'h'
   796     05CD  3465               	retlw	101	;'e'
   797     05CE  3461               	retlw	97	;'a'
   798     05CF  3474               	retlw	116	;'t'
   799     05D0  3469               	retlw	105	;'i'
   800     05D1  346E               	retlw	110	;'n'
   801     05D2  3467               	retlw	103	;'g'
   802     05D3  3400               	retlw	0
   803     05D4                     STR_1:
   804     05D4  3450               	retlw	80	;'P'
   805     05D5  346F               	retlw	111	;'o'
   806     05D6  3477               	retlw	119	;'w'
   807     05D7  3465               	retlw	101	;'e'
   808     05D8  3472               	retlw	114	;'r'
   809     05D9  3469               	retlw	105	;'i'
   810     05DA  346E               	retlw	110	;'n'
   811     05DB  3467               	retlw	103	;'g'
   812     05DC  3420               	retlw	32	;' '
   813     05DD  346F               	retlw	111	;'o'
   814     05DE  346E               	retlw	110	;'n'
   815     05DF  3400               	retlw	0
   816     05E0                     STR_8:
   817     05E0  3454               	retlw	84	;'T'
   818     05E1  3449               	retlw	73	;'I'
   819     05E2  344D               	retlw	77	;'M'
   820     05E3  3445               	retlw	69	;'E'
   821     05E4  3420               	retlw	32	;' '
   822     05E5  343A               	retlw	58	;':'
   823     05E6  3420               	retlw	32	;' '
   824     05E7  3400               	retlw	0
   825     05E8                     STR_14:
   826     05E8  3454               	retlw	84	;'T'
   827     05E9  3449               	retlw	73	;'I'
   828     05EA  344D               	retlw	77	;'M'
   829     05EB  3445               	retlw	69	;'E'
   830     05EC  3420               	retlw	32	;' '
   831     05ED  343D               	retlw	61	;'='
   832     05EE  3420               	retlw	32	;' '
   833     05EF  3400               	retlw	0
   834     05F0                     STR_21:
   835     05F0  3454               	retlw	84	;'T'
   836     05F1  3445               	retlw	69	;'E'
   837     05F2  344D               	retlw	77	;'M'
   838     05F3  3450               	retlw	80	;'P'
   839     05F4  3420               	retlw	32	;' '
   840     05F5  343D               	retlw	61	;'='
   841     05F6  3420               	retlw	32	;' '
   842     05F7  3400               	retlw	0
   843     05F8                     STR_16:
   844     05F8  3435               	retlw	53	;'5'
   845     05F9  342E               	retlw	46	;'.'
   846     05FA  3450               	retlw	80	;'P'
   847     05FB  3441               	retlw	65	;'A'
   848     05FC  3453               	retlw	83	;'S'
   849     05FD  3400               	retlw	0
   850     05FE                     STR_3:
   851     05FE  344D               	retlw	77	;'M'
   852     05FF  344F               	retlw	79	;'O'
   853     0600  3444               	retlw	68	;'D'
   854     0601  3445               	retlw	69	;'E'
   855     0602  3453               	retlw	83	;'S'
   856     0603  3400               	retlw	0
   857     0604                     STR_15:
   858     0604  3434               	retlw	52	;'4'
   859     0605  342E               	retlw	46	;'.'
   860     0606  3452               	retlw	82	;'R'
   861     0607  3445               	retlw	69	;'E'
   862     0608  3453               	retlw	83	;'S'
   863     0609  3400               	retlw	0
   864     060A                     STR_17:
   865     060A  3436               	retlw	54	;'6'
   866     060B  342E               	retlw	46	;'.'
   867     060C  3453               	retlw	83	;'S'
   868     060D  3450               	retlw	80	;'P'
   869     060E  3400               	retlw	0
   870     050E                     STR_12          equ	STR_11+14
   871     050E                     STR_13          equ	STR_11+14
   872                           
   873                           	psect	cinit
   874     000F                     start_initialization:	
   875                           ; #config settings
   876                           
   877     000F                     __initialization:
   878                           
   879                           ; Initialize objects allocated to COMMON
   880     000F  120A  118A  24FF  120A  118A  	fcall	__pidataCOMMON	;fetch initializer
   881     0014  00FB               	movwf	__pdataCOMMON& (0+127)
   882                           
   883                           ; Clear objects allocated to BANK0
   884     0015  1383               	bcf	3,7	;select IRP bank0
   885     0016  304B               	movlw	low __pbssBANK0
   886     0017  0084               	movwf	4
   887     0018  3062               	movlw	low (__pbssBANK0+23)
   888     0019  120A  118A  24F7  120A  118A  	fcall	clear_ram0
   889                           
   890                           ; Clear objects allocated to COMMON
   891     001E  01F9               	clrf	__pbssCOMMON& (0+127)
   892     001F  01FA               	clrf	(__pbssCOMMON+1)& (0+127)
   893     0020                     end_of_initialization:	
   894                           ;End of C runtime variable initialization code
   895                           
   896     0020                     __end_of__initialization:
   897     0020  0183               	clrf	3
   898     0021  120A  118A  2E0F   	ljmp	_main	;jump to C main() function
   899                           
   900                           	psect	bssCOMMON
   901     0079                     __pbssCOMMON:
   902     0079                     _menu_index:
   903     0079                     	ds	1
   904     007A                     _temp_time_count:
   905     007A                     	ds	1
   906                           
   907                           	psect	dataCOMMON
   908     007B                     __pdataCOMMON:
   909     007B                     read_matrix_keypad@once:
   910     007B                     	ds	1
   911                           
   912                           	psect	bssBANK0
   913     004B                     __pbssBANK0:
   914     004B                     isr@count:
   915     004B                     	ds	2
   916     004D                     set_temp@blink:
   917     004D                     	ds	1
   918     004E                     set_temp@blink_time:
   919     004E                     	ds	1
   920     004F                     set_time_screen@blink:
   921     004F                     	ds	1
   922     0050                     set_time_screen@blink_timer:
   923     0050                     	ds	1
   924     0051                     _operation_mode_flag:
   925     0051                     	ds	1
   926     0052                     _control_flag:
   927     0052                     	ds	1
   928     0053                     _time_count:
   929     0053                     	ds	1
   930     0054                     _time_arr:
   931     0054                     	ds	8
   932     005C                     _temp_arr:
   933     005C                     	ds	6
   934                           
   935                           	psect	clrtext
   936     04F7                     clear_ram0:	
   937                           ;	Called with FSR containing the base address, and
   938                           ;	W with the last address+1
   939                           
   940     04F7  0064               	clrwdt	;clear the watchdog before getting into this loop
   941     04F8                     clrloop0:
   942     04F8  0180               	clrf	0	;clear RAM location pointed to by FSR
   943     04F9  0A84               	incf	4,f	;increment pointer
   944     04FA  0604               	xorwf	4,w	;XOR with final address
   945     04FB  1903               	btfsc	3,2	;have we reached the end yet?
   946     04FC  3400               	retlw	0	;all done for this memory range, return
   947     04FD  0604               	xorwf	4,w	;XOR again to restore value
   948     04FE  2CF8               	goto	clrloop0	;do the next byte
   949                           
   950                           	psect	cstackCOMMON
   951     0070                     __pcstackCOMMON:
   952     0070                     ?_init_timer2:
   953     0070                     ?_init_matrix_keypad:	
   954                           ; 1 bytes @ 0x0
   955                           
   956     0070                     ?_read_matrix_keypad:	
   957                           ; 1 bytes @ 0x0
   958                           
   959     0070                     ?_menu_screen:	
   960                           ; 1 bytes @ 0x0
   961                           
   962     0070                     ?_micro_mode:	
   963                           ; 1 bytes @ 0x0
   964                           
   965     0070                     ?_convention_mode:	
   966                           ; 1 bytes @ 0x0
   967                           
   968     0070                     ?_start_mode_screen:	
   969                           ; 1 bytes @ 0x0
   970                           
   971     0070                     ?_clear_display:	
   972                           ; 1 bytes @ 0x0
   973                           
   974     0070                     ?_set_time_screen:	
   975                           ; 1 bytes @ 0x0
   976                           
   977     0070                     ?_operation_mode:	
   978                           ; 1 bytes @ 0x0
   979                           
   980     0070                     ?_set_temp:	
   981                           ; 1 bytes @ 0x0
   982                           
   983     0070                     ?_preheat_screen:	
   984                           ; 1 bytes @ 0x0
   985                           
   986     0070                     ?_init_display_controller:	
   987                           ; 1 bytes @ 0x0
   988                           
   989     0070                     ?_init_clcd:	
   990                           ; 1 bytes @ 0x0
   991                           
   992     0070                     ?_isr:	
   993                           ; 1 bytes @ 0x0
   994                           
   995     0070                     ?_init_config:	
   996                           ; 1 bytes @ 0x0
   997                           
   998     0070                     ?_main:	
   999                           ; 1 bytes @ 0x0
  1000                           
  1001     0070                     ?_scan_keypad:	
  1002                           ; 1 bytes @ 0x0
  1003                           
  1004     0070                     ??_isr:	
  1005                           ; 1 bytes @ 0x0
  1006                           
  1007                           
  1008                           ; 1 bytes @ 0x0
  1009     0070                     	ds	2
  1010     0072                     ?_memset:
  1011     0072                     ?_clcd_write:	
  1012                           ; 1 bytes @ 0x2
  1013                           
  1014     0072                     ?___bmul:	
  1015                           ; 1 bytes @ 0x2
  1016                           
  1017     0072                     ?___wmul:	
  1018                           ; 1 bytes @ 0x2
  1019                           
  1020     0072                     ?___awdiv:	
  1021                           ; 2 bytes @ 0x2
  1022                           
  1023     0072                     ?___awmod:	
  1024                           ; 2 bytes @ 0x2
  1025                           
  1026     0072                     ?___lwdiv:	
  1027                           ; 2 bytes @ 0x2
  1028                           
  1029     0072                     ?___lwmod:	
  1030                           ; 2 bytes @ 0x2
  1031                           
  1032     0072                     clcd_write@mode:	
  1033                           ; 2 bytes @ 0x2
  1034                           
  1035     0072                     ___bmul@multiplicand:	
  1036                           ; 1 bytes @ 0x2
  1037                           
  1038     0072                     memset@dest:	
  1039                           ; 1 bytes @ 0x2
  1040                           
  1041     0072                     scan_keypad@i:	
  1042                           ; 1 bytes @ 0x2
  1043                           
  1044     0072                     ___wmul@multiplier:	
  1045                           ; 2 bytes @ 0x2
  1046                           
  1047     0072                     ___awdiv@divisor:	
  1048                           ; 2 bytes @ 0x2
  1049                           
  1050     0072                     ___awmod@divisor:	
  1051                           ; 2 bytes @ 0x2
  1052                           
  1053     0072                     ___lwdiv@divisor:	
  1054                           ; 2 bytes @ 0x2
  1055                           
  1056     0072                     ___lwmod@divisor:	
  1057                           ; 2 bytes @ 0x2
  1058                           
  1059     0072                     ??_init_timer2:	
  1060                           ; 2 bytes @ 0x2
  1061                           
  1062     0072                     ??_init_matrix_keypad:	
  1063                           ; 1 bytes @ 0x2
  1064                           
  1065     0072                     ??_scan_keypad:	
  1066                           ; 1 bytes @ 0x2
  1067                           
  1068                           
  1069                           ; 1 bytes @ 0x2
  1070     0072                     	ds	1
  1071     0073                     ___bmul@product:
  1072     0073                     memset@c:	
  1073                           ; 1 bytes @ 0x3
  1074                           
  1075     0073                     ??_clcd_write:	
  1076                           ; 2 bytes @ 0x3
  1077                           
  1078     0073                     ??___bmul:	
  1079                           ; 1 bytes @ 0x3
  1080                           
  1081                           
  1082                           ; 1 bytes @ 0x3
  1083     0073                     	ds	1
  1084     0074                     read_matrix_keypad@mode:
  1085     0074                     ___bmul@multiplier:	
  1086                           ; 1 bytes @ 0x4
  1087                           
  1088     0074                     ___wmul@multiplicand:	
  1089                           ; 1 bytes @ 0x4
  1090                           
  1091     0074                     ___awdiv@dividend:	
  1092                           ; 2 bytes @ 0x4
  1093                           
  1094     0074                     ___awmod@dividend:	
  1095                           ; 2 bytes @ 0x4
  1096                           
  1097     0074                     ___lwdiv@dividend:	
  1098                           ; 2 bytes @ 0x4
  1099                           
  1100     0074                     ___lwmod@dividend:	
  1101                           ; 2 bytes @ 0x4
  1102                           
  1103     0074                     ??_read_matrix_keypad:	
  1104                           ; 2 bytes @ 0x4
  1105                           
  1106                           
  1107                           ; 1 bytes @ 0x4
  1108     0074                     	ds	1
  1109     0075                     clcd_write@byte:
  1110     0075                     read_matrix_keypad@key:	
  1111                           ; 1 bytes @ 0x5
  1112                           
  1113     0075                     memset@n:	
  1114                           ; 1 bytes @ 0x5
  1115                           
  1116                           
  1117                           ; 2 bytes @ 0x5
  1118     0075                     	ds	1
  1119     0076                     ?_clcd_print:
  1120     0076                     ___awmod@counter:	
  1121                           ; 1 bytes @ 0x6
  1122                           
  1123     0076                     ___lwmod@counter:	
  1124                           ; 1 bytes @ 0x6
  1125                           
  1126     0076                     clcd_print@str:	
  1127                           ; 1 bytes @ 0x6
  1128                           
  1129     0076                     ___wmul@product:	
  1130                           ; 2 bytes @ 0x6
  1131                           
  1132     0076                     ___lwdiv@quotient:	
  1133                           ; 2 bytes @ 0x6
  1134                           
  1135     0076                     ??_clear_display:	
  1136                           ; 2 bytes @ 0x6
  1137                           
  1138     0076                     ??_init_display_controller:	
  1139                           ; 1 bytes @ 0x6
  1140                           
  1141     0076                     ??___wmul:	
  1142                           ; 1 bytes @ 0x6
  1143                           
  1144     0076                     ??___awdiv:	
  1145                           ; 1 bytes @ 0x6
  1146                           
  1147     0076                     ??___awmod:	
  1148                           ; 1 bytes @ 0x6
  1149                           
  1150     0076                     ??___lwdiv:	
  1151                           ; 1 bytes @ 0x6
  1152                           
  1153     0076                     ??___lwmod:	
  1154                           ; 1 bytes @ 0x6
  1155                           
  1156                           
  1157                           ; 1 bytes @ 0x6
  1158     0076                     	ds	1
  1159     0077                     ___awmod@sign:
  1160     0077                     memset@p:	
  1161                           ; 1 bytes @ 0x7
  1162                           
  1163     0077                     ??_memset:	
  1164                           ; 1 bytes @ 0x7
  1165                           
  1166                           
  1167                           ; 1 bytes @ 0x7
  1168     0077                     	ds	1
  1169     0078                     ?_clcd_putch:
  1170     0078                     clcd_putch@addr:	
  1171                           ; 1 bytes @ 0x8
  1172                           
  1173     0078                     clcd_print@addr:	
  1174                           ; 1 bytes @ 0x8
  1175                           
  1176     0078                     ___lwdiv@counter:	
  1177                           ; 1 bytes @ 0x8
  1178                           
  1179     0078                     ??_init_clcd:	
  1180                           ; 1 bytes @ 0x8
  1181                           
  1182     0078                     ??_init_config:	
  1183                           ; 1 bytes @ 0x8
  1184                           
  1185                           
  1186                           ; 1 bytes @ 0x8
  1187     0078                     	ds	1
  1188     0079                     ??_convention_mode:
  1189     0079                     ??_start_mode_screen:	
  1190                           ; 1 bytes @ 0x9
  1191                           
  1192     0079                     ??_clcd_putch:	
  1193                           ; 1 bytes @ 0x9
  1194                           
  1195     0079                     ??_clcd_print:	
  1196                           ; 1 bytes @ 0x9
  1197                           
  1198                           
  1199                           	psect	cstackBANK0
  1200     0020                     __pcstackBANK0:	
  1201                           ; 1 bytes @ 0x9
  1202                           
  1203     0020                     ___awdiv@counter:
  1204     0020                     ??_menu_screen:	
  1205                           ; 1 bytes @ 0x0
  1206                           
  1207                           
  1208                           ; 1 bytes @ 0x0
  1209     0020                     	ds	1
  1210     0021                     ___awdiv@sign:
  1211                           
  1212                           ; 1 bytes @ 0x1
  1213     0021                     	ds	1
  1214     0022                     ___awdiv@quotient:
  1215                           
  1216                           ; 2 bytes @ 0x2
  1217     0022                     	ds	1
  1218     0023                     menu_screen@reset_flag:
  1219                           
  1220                           ; 1 bytes @ 0x3
  1221     0023                     	ds	1
  1222     0024                     clcd_putch@data:
  1223                           
  1224                           ; 1 bytes @ 0x4
  1225     0024                     	ds	1
  1226     0025                     ??_operation_mode:
  1227     0025                     ??_preheat_screen:	
  1228                           ; 1 bytes @ 0x5
  1229                           
  1230                           
  1231                           ; 1 bytes @ 0x5
  1232     0025                     	ds	3
  1233     0028                     operation_mode@menu_flag:
  1234                           
  1235                           ; 1 bytes @ 0x8
  1236     0028                     	ds	1
  1237     0029                     operation_mode@minutes:
  1238                           
  1239                           ; 2 bytes @ 0x9
  1240     0029                     	ds	2
  1241     002B                     operation_mode@seconds:
  1242                           
  1243                           ; 2 bytes @ 0xB
  1244     002B                     	ds	2
  1245     002D                     operation_mode@pause_flag:
  1246                           
  1247                           ; 1 bytes @ 0xD
  1248     002D                     	ds	1
  1249     002E                     operation_mode@key:
  1250                           
  1251                           ; 1 bytes @ 0xE
  1252     002E                     	ds	1
  1253     002F                     ??_set_time_screen:
  1254                           
  1255                           ; 1 bytes @ 0xF
  1256     002F                     	ds	3
  1257     0032                     set_time_screen@field:
  1258                           
  1259                           ; 1 bytes @ 0x12
  1260     0032                     	ds	1
  1261     0033                     set_time_screen@key_count:
  1262                           
  1263                           ; 2 bytes @ 0x13
  1264     0033                     	ds	2
  1265     0035                     set_time_screen@key:
  1266                           
  1267                           ; 1 bytes @ 0x15
  1268     0035                     	ds	1
  1269     0036                     ??_micro_mode:
  1270     0036                     ??_set_temp:	
  1271                           ; 1 bytes @ 0x16
  1272                           
  1273                           
  1274                           ; 1 bytes @ 0x16
  1275     0036                     	ds	3
  1276     0039                     micro_mode@reset_flag:
  1277                           
  1278                           ; 1 bytes @ 0x19
  1279     0039                     	ds	1
  1280     003A                     set_temp@value:
  1281                           
  1282                           ; 2 bytes @ 0x1A
  1283     003A                     	ds	2
  1284     003C                     _set_temp$220:
  1285                           
  1286                           ; 2 bytes @ 0x1C
  1287     003C                     	ds	2
  1288     003E                     set_temp@preheat_flag:
  1289                           
  1290                           ; 1 bytes @ 0x1E
  1291     003E                     	ds	1
  1292     003F                     set_temp@temp_key_count:
  1293                           
  1294                           ; 2 bytes @ 0x1F
  1295     003F                     	ds	2
  1296     0041                     set_temp@i:
  1297                           
  1298                           ; 2 bytes @ 0x21
  1299     0041                     	ds	2
  1300     0043                     set_temp@key:
  1301                           
  1302                           ; 1 bytes @ 0x23
  1303     0043                     	ds	1
  1304     0044                     convention_mode@reset_flag:
  1305                           
  1306                           ; 1 bytes @ 0x24
  1307     0044                     	ds	1
  1308     0045                     ??_main:
  1309                           
  1310                           ; 1 bytes @ 0x25
  1311     0045                     	ds	3
  1312     0048                     main@key:
  1313                           
  1314                           ; 1 bytes @ 0x28
  1315     0048                     	ds	1
  1316     0049                     main@i:
  1317                           
  1318                           ; 1 bytes @ 0x29
  1319     0049                     	ds	1
  1320     004A                     main@reset_flag:
  1321                           
  1322                           ; 1 bytes @ 0x2A
  1323     004A                     	ds	1
  1324                           
  1325                           	psect	maintext
  1326     060F                     __pmaintext:	
  1327 ;;
  1328 ;;Main: autosize = 0, tempsize = 3, incstack = 0, save=0
  1329 ;;
  1330 ;; *************** function _main *****************
  1331 ;; Defined at:
  1332 ;;		line 24 in file "main.c"
  1333 ;; Parameters:    Size  Location     Type
  1334 ;;		None
  1335 ;; Auto vars:     Size  Location     Type
  1336 ;;  i               1   41[BANK0 ] unsigned char 
  1337 ;;  reset_flag      1   42[BANK0 ] unsigned char 
  1338 ;;  key             1   40[BANK0 ] unsigned char 
  1339 ;; Return value:  Size  Location     Type
  1340 ;;                  1    wreg      void 
  1341 ;; Registers used:
  1342 ;;		wreg, fsr0l, fsr0h, status,2, status,0, btemp+1, pclath, cstack
  1343 ;; Tracked objects:
  1344 ;;		On entry : B00/0
  1345 ;;		On exit  : 0/0
  1346 ;;		Unchanged: 0/0
  1347 ;; Data sizes:     COMMON   BANK0   BANK1   BANK3   BANK2
  1348 ;;      Params:         0       0       0       0       0
  1349 ;;      Locals:         0       3       0       0       0
  1350 ;;      Temps:          0       3       0       0       0
  1351 ;;      Totals:         0       6       0       0       0
  1352 ;;Total ram usage:        6 bytes
  1353 ;; Hardware stack levels required when called: 8
  1354 ;; This function calls:
  1355 ;;		_clcd_print
  1356 ;;		_clcd_putch
  1357 ;;		_convention_mode
  1358 ;;		_init_config
  1359 ;;		_menu_screen
  1360 ;;		_micro_mode
  1361 ;;		_read_matrix_keypad
  1362 ;;		_start_mode_screen
  1363 ;; This function is called by:
  1364 ;;		Startup code after reset
  1365 ;; This function uses a non-reentrant model
  1366 ;;
  1367                           
  1368     060F                     _main:	
  1369                           ;psect for function _main
  1370                           
  1371     060F                     l3043:	
  1372                           ;incstack = 0
  1373                           ; Regs used in _main: [wreg-fsr0h+status,2+status,0+btemp+1+pclath+cstack]
  1374                           
  1375                           
  1376                           ;main.c: 26:     clcd_print("Powering on", (0xC0 + 3));
  1377     060F  120A  158A  2565  120A  118A  	fcall	_init_config
  1378     0614                     l3045:
  1379                           
  1380                           ;main.c: 28: 
  1381     0614  3020               	movlw	32
  1382     0615  1283               	bcf	3,5	;RP0=0, select bank0
  1383     0616  1303               	bcf	3,6	;RP1=0, select bank0
  1384     0617  00CA               	movwf	main@reset_flag
  1385     0618                     l3047:
  1386                           
  1387                           ;main.c: 31:         clcd_putch(0xFF, (0x80 + i));
  1388     0618  30D4               	movlw	low (STR_1| (0+32768))
  1389     0619  00F6               	movwf	clcd_print@str
  1390     061A  3085               	movlw	high (STR_1| (0+32768))
  1391     061B  00F7               	movwf	clcd_print@str+1
  1392     061C  30C3               	movlw	195
  1393     061D  00F8               	movwf	clcd_print@addr
  1394     061E  120A  158A  25F0  120A  118A  	fcall	_clcd_print
  1395     0623                     l3049:
  1396                           
  1397                           ;main.c: 32:         clcd_putch(0xFF, (0xD0 + i));
  1398     0623  3086               	movlw	low (STR_2| (0+32768))
  1399     0624  00F6               	movwf	clcd_print@str
  1400     0625  3085               	movlw	high (STR_2| (0+32768))
  1401     0626  00F7               	movwf	clcd_print@str+1
  1402     0627  3092               	movlw	146
  1403     0628  00F8               	movwf	clcd_print@addr
  1404     0629  120A  158A  25F0  120A  118A  	fcall	_clcd_print
  1405     062E                     l3051:
  1406                           
  1407                           ;main.c: 34:     }
  1408     062E  1283               	bcf	3,5	;RP0=0, select bank0
  1409     062F  1303               	bcf	3,6	;RP1=0, select bank0
  1410     0630  01C9               	clrf	main@i
  1411     0631                     l3057:
  1412                           
  1413                           ;main.c: 35: ;main.c: 36:     _delay((unsigned long)((500)*(20000000/4000.0)));
  1414     0631  0849               	movf	main@i,w
  1415     0632  3E80               	addlw	128
  1416     0633  00F8               	movwf	clcd_putch@addr
  1417     0634  30FF               	movlw	255
  1418     0635  120A  158A  2550  120A  118A  	fcall	_clcd_putch
  1419                           
  1420                           ;main.c: 37: 
  1421     063A  1283               	bcf	3,5	;RP0=0, select bank0
  1422     063B  1303               	bcf	3,6	;RP1=0, select bank0
  1423     063C  0849               	movf	main@i,w
  1424     063D  3ED0               	addlw	208
  1425     063E  00F8               	movwf	clcd_putch@addr
  1426     063F  30FF               	movlw	255
  1427     0640  120A  158A  2550  120A  118A  	fcall	_clcd_putch
  1428     0645                     l3059:
  1429                           
  1430                           ;main.c: 38:     control_flag = 0x11;
  1431     0645  3041               	movlw	65
  1432     0646  1283               	bcf	3,5	;RP0=0, select bank0
  1433     0647  1303               	bcf	3,6	;RP1=0, select bank0
  1434     0648  00C6               	movwf	??_main+1
  1435     0649  30ED               	movlw	237
  1436     064A  00C5               	movwf	??_main
  1437     064B                     u2987:
  1438     064B  0BC5               	decfsz	??_main,f
  1439     064C  2E4B               	goto	u2987
  1440     064D  0BC6               	decfsz	??_main+1,f
  1441     064E  2E4B               	goto	u2987
  1442     064F  2E50               	nop2
  1443     0650                     l3061:
  1444                           
  1445                           ;main.c: 39: 
  1446     0650  3001               	movlw	1
  1447     0651  1283               	bcf	3,5	;RP0=0, select bank0
  1448     0652  1303               	bcf	3,6	;RP1=0, select bank0
  1449     0653  07C9               	addwf	main@i,f
  1450     0654                     l3063:
  1451     0654  3010               	movlw	16
  1452     0655  0249               	subwf	main@i,w
  1453     0656  1C03               	skipc
  1454     0657  2E59               	goto	u2961
  1455     0658  2E5A               	goto	u2960
  1456     0659                     u2961:
  1457     0659  2E31               	goto	l3057
  1458     065A                     u2960:
  1459     065A                     l3065:
  1460                           
  1461                           ;main.c: 41:     {
  1462     065A  300D               	movlw	13
  1463     065B  1283               	bcf	3,5	;RP0=0, select bank0
  1464     065C  1303               	bcf	3,6	;RP1=0, select bank0
  1465     065D  00C7               	movwf	??_main+2
  1466     065E  30AF               	movlw	175
  1467     065F  00C6               	movwf	??_main+1
  1468     0660  30B5               	movlw	181
  1469     0661  00C5               	movwf	??_main
  1470     0662                     u2997:
  1471     0662  0BC5               	decfsz	??_main,f
  1472     0663  2E62               	goto	u2997
  1473     0664  0BC6               	decfsz	??_main+1,f
  1474     0665  2E62               	goto	u2997
  1475     0666  0BC7               	decfsz	??_main+2,f
  1476     0667  2E62               	goto	u2997
  1477     0668  2E69               	nop2
  1478     0669                     l3067:
  1479                           
  1480                           ;main.c: 43: 
  1481     0669  3011               	movlw	17
  1482     066A  1283               	bcf	3,5	;RP0=0, select bank0
  1483     066B  1303               	bcf	3,6	;RP1=0, select bank0
  1484     066C  00D2               	movwf	_control_flag
  1485     066D                     l3069:
  1486                           
  1487                           ;main.c: 46:         {;main.c: 47:             switch (key)
  1488     066D  3001               	movlw	1
  1489     066E  120A  158A  257B  120A  118A  	fcall	_read_matrix_keypad
  1490     0673  1283               	bcf	3,5	;RP0=0, select bank0
  1491     0674  1303               	bcf	3,6	;RP1=0, select bank0
  1492     0675  00C8               	movwf	main@key
  1493     0676                     l3071:
  1494                           
  1495                           ;main.c: 50:                     control_flag = 0x12;
  1496     0676  3011               	movlw	17
  1497     0677  0652               	xorwf	_control_flag,w
  1498     0678  1D03               	btfss	3,2
  1499     0679  2E7B               	goto	u2971
  1500     067A  2E7C               	goto	u2970
  1501     067B                     u2971:
  1502     067B  2EC0               	goto	l3091
  1503     067C                     u2970:
  1504     067C  2E8F               	goto	l3077
  1505     067D                     l94:	
  1506                           ;main.c: 53: ;main.c: 54:                 case 2:
  1507                           
  1508                           
  1509                           ;main.c: 55:                     control_flag = 0x13;
  1510     067D  3012               	movlw	18
  1511     067E  00D2               	movwf	_control_flag
  1512                           
  1513                           ;main.c: 56:                     reset_flag = 0x20;
  1514     067F  3020               	movlw	32
  1515     0680  00CA               	movwf	main@reset_flag
  1516                           
  1517                           ;main.c: 57:                     break;
  1518     0681  2EC0               	goto	l3091
  1519     0682                     l96:	
  1520                           ;main.c: 59:                 case 3:
  1521                           
  1522                           
  1523                           ;main.c: 60:                     control_flag = 0X14;
  1524     0682  3013               	movlw	19
  1525     0683  00D2               	movwf	_control_flag
  1526                           
  1527                           ;main.c: 61:                     reset_flag = 0x20;
  1528     0684  3020               	movlw	32
  1529     0685  00CA               	movwf	main@reset_flag
  1530                           
  1531                           ;main.c: 62:                     break;
  1532     0686  2EC0               	goto	l3091
  1533     0687                     l97:	
  1534                           ;main.c: 64:                 case 4:
  1535                           
  1536                           
  1537                           ;main.c: 65:                     control_flag = 0x15;
  1538     0687  3014               	movlw	20
  1539     0688  00D2               	movwf	_control_flag
  1540                           
  1541                           ;main.c: 66:                     break;
  1542     0689  3020               	movlw	32
  1543     068A  00CA               	movwf	main@reset_flag
  1544                           
  1545                           ;main.c: 67: 
  1546     068B  2EC0               	goto	l3091
  1547     068C                     l98:	
  1548                           ;main.c: 69:                     break;
  1549                           
  1550                           
  1551                           ;main.c: 70:             }
  1552     068C  3015               	movlw	21
  1553     068D  00D2               	movwf	_control_flag
  1554                           
  1555                           ;main.c: 71:         }
  1556     068E  2EC0               	goto	l3091
  1557     068F                     l3077:
  1558     068F  0848               	movf	main@key,w
  1559                           
  1560                           ; Switch size 1, requested type "simple"
  1561                           ; Number of cases is 4, Range of values is 1 to 4
  1562                           ; switch strategies available:
  1563                           ; Name         Instructions Cycles
  1564                           ; simple_byte           13     7 (average)
  1565                           ; direct_byte           23    11 (fixed)
  1566                           ; jumptable            263     9 (fixed)
  1567                           ;	Chosen strategy is simple_byte
  1568     0690  3A01               	xorlw	1	; case 1
  1569     0691  1903               	skipnz
  1570     0692  2E7D               	goto	l94
  1571     0693  3A03               	xorlw	3	; case 2
  1572     0694  1903               	skipnz
  1573     0695  2E82               	goto	l96
  1574     0696  3A01               	xorlw	1	; case 3
  1575     0697  1903               	skipnz
  1576     0698  2E87               	goto	l97
  1577     0699  3A07               	xorlw	7	; case 4
  1578     069A  1903               	skipnz
  1579     069B  2E8C               	goto	l98
  1580     069C  2E9D               	goto	l92
  1581     069D                     l92:	
  1582                           ;main.c: 76:             case 0x11:
  1583                           
  1584                           
  1585                           ;main.c: 79: 
  1586     069D  2EC0               	goto	l3091
  1587     069E                     l3079:
  1588                           
  1589                           ;main.c: 82:                 break;
  1590     069E  084A               	movf	main@reset_flag,w
  1591     069F  120A  158A  2704  120A  118A  	fcall	_menu_screen
  1592                           
  1593                           ;main.c: 83: 
  1594     06A4  2ED1               	goto	l102
  1595     06A5                     l3081:
  1596                           
  1597                           ;main.c: 86:                 break;
  1598     06A5  084A               	movf	main@reset_flag,w
  1599     06A6  120A  158A  261F  120A  118A  	fcall	_micro_mode
  1600                           
  1601                           ;main.c: 87: 
  1602     06AB  2ED1               	goto	l102
  1603     06AC                     l3083:
  1604                           
  1605                           ;main.c: 90:                 break;
  1606     06AC  084A               	movf	main@reset_flag,w
  1607     06AD  120A  158A  261F  120A  118A  	fcall	_micro_mode
  1608                           
  1609                           ;main.c: 91: 
  1610     06B2  2ED1               	goto	l102
  1611     06B3                     l3085:
  1612                           
  1613                           ;main.c: 94:                 break;
  1614     06B3  084A               	movf	main@reset_flag,w
  1615     06B4  120A  158A  253C  120A  118A  	fcall	_convention_mode
  1616                           
  1617                           ;main.c: 95: 
  1618     06B9  2ED1               	goto	l102
  1619     06BA                     l3087:
  1620                           
  1621                           ;main.c: 98:         }
  1622     06BA  120A  158A  24F3  120A  118A  	fcall	_start_mode_screen
  1623                           
  1624                           ;main.c: 99: 
  1625     06BF  2ED1               	goto	l102
  1626     06C0                     l3091:
  1627     06C0  0852               	movf	_control_flag,w
  1628                           
  1629                           ; Switch size 1, requested type "simple"
  1630                           ; Number of cases is 5, Range of values is 17 to 21
  1631                           ; switch strategies available:
  1632                           ; Name         Instructions Cycles
  1633                           ; simple_byte           16     9 (average)
  1634                           ; direct_byte           26    11 (fixed)
  1635                           ; jumptable            263     9 (fixed)
  1636                           ;	Chosen strategy is simple_byte
  1637     06C1  3A11               	xorlw	17	; case 17
  1638     06C2  1903               	skipnz
  1639     06C3  2E9E               	goto	l3079
  1640     06C4  3A03               	xorlw	3	; case 18
  1641     06C5  1903               	skipnz
  1642     06C6  2EA5               	goto	l3081
  1643     06C7  3A01               	xorlw	1	; case 19
  1644     06C8  1903               	skipnz
  1645     06C9  2EAC               	goto	l3083
  1646     06CA  3A07               	xorlw	7	; case 20
  1647     06CB  1903               	skipnz
  1648     06CC  2EB3               	goto	l3085
  1649     06CD  3A01               	xorlw	1	; case 21
  1650     06CE  1903               	skipnz
  1651     06CF  2EBA               	goto	l3087
  1652     06D0  2ED1               	goto	l102
  1653     06D1                     l102:
  1654     06D1  3021               	movlw	33
  1655     06D2  1283               	bcf	3,5	;RP0=0, select bank0
  1656     06D3  1303               	bcf	3,6	;RP1=0, select bank0
  1657     06D4  00CA               	movwf	main@reset_flag
  1658     06D5  2E6D               	goto	l3069
  1659     06D6  120A  118A  280C   	ljmp	start
  1660     06D9                     __end_of_main:
  1661                           
  1662                           	psect	text1
  1663     0CF3                     __ptext1:	
  1664 ;; *************** function _start_mode_screen *****************
  1665 ;; Defined at:
  1666 ;;		line 295 in file "microwave_def.c"
  1667 ;; Parameters:    Size  Location     Type
  1668 ;;		None
  1669 ;; Auto vars:     Size  Location     Type
  1670 ;;		None
  1671 ;; Return value:  Size  Location     Type
  1672 ;;                  1    wreg      void 
  1673 ;; Registers used:
  1674 ;;		wreg, fsr0l, fsr0h, status,2, status,0, btemp+1, pclath, cstack
  1675 ;; Tracked objects:
  1676 ;;		On entry : 0/0
  1677 ;;		On exit  : 0/0
  1678 ;;		Unchanged: 0/0
  1679 ;; Data sizes:     COMMON   BANK0   BANK1   BANK3   BANK2
  1680 ;;      Params:         0       0       0       0       0
  1681 ;;      Locals:         0       0       0       0       0
  1682 ;;      Temps:          0       0       0       0       0
  1683 ;;      Totals:         0       0       0       0       0
  1684 ;;Total ram usage:        0 bytes
  1685 ;; Hardware stack levels used: 1
  1686 ;; Hardware stack levels required when called: 5
  1687 ;; This function calls:
  1688 ;;		_operation_mode
  1689 ;; This function is called by:
  1690 ;;		_main
  1691 ;; This function uses a non-reentrant model
  1692 ;;
  1693                           
  1694     0CF3                     _start_mode_screen:	
  1695                           ;psect for function _start_mode_screen
  1696                           
  1697     0CF3                     l3039:	
  1698                           ;incstack = 0
  1699                           ; Regs used in _start_mode_screen: [wreg-fsr0h+status,2+status,0+btemp+1+pclath+cstack]
  1700                           
  1701                           
  1702                           ;microwave_def.c: 297:     time_count = 30;
  1703     0CF3  301E               	movlw	30
  1704     0CF4  1283               	bcf	3,5	;RP0=0, select bank0
  1705     0CF5  1303               	bcf	3,6	;RP1=0, select bank0
  1706     0CF6  00D3               	movwf	_time_count
  1707     0CF7                     l3041:
  1708                           
  1709                           ;microwave_def.c: 298:     operation_mode();
  1710     0CF7  120A  118A  21D6  120A  158A  	fcall	_operation_mode
  1711     0CFC                     l304:
  1712     0CFC  0008               	return
  1713     0CFD                     __end_of_start_mode_screen:
  1714                           
  1715                           	psect	text2
  1716     0E1F                     __ptext2:	
  1717 ;; *************** function _micro_mode *****************
  1718 ;; Defined at:
  1719 ;;		line 31 in file "microwave_def.c"
  1720 ;; Parameters:    Size  Location     Type
  1721 ;;  reset_flag      1    wreg     unsigned char 
  1722 ;; Auto vars:     Size  Location     Type
  1723 ;;  reset_flag      1   25[BANK0 ] unsigned char 
  1724 ;; Return value:  Size  Location     Type
  1725 ;;                  1    wreg      void 
  1726 ;; Registers used:
  1727 ;;		wreg, fsr0l, fsr0h, status,2, status,0, btemp+1, pclath, cstack
  1728 ;; Tracked objects:
  1729 ;;		On entry : 0/0
  1730 ;;		On exit  : 0/0
  1731 ;;		Unchanged: 0/0
  1732 ;; Data sizes:     COMMON   BANK0   BANK1   BANK3   BANK2
  1733 ;;      Params:         0       0       0       0       0
  1734 ;;      Locals:         0       1       0       0       0
  1735 ;;      Temps:          0       3       0       0       0
  1736 ;;      Totals:         0       4       0       0       0
  1737 ;;Total ram usage:        4 bytes
  1738 ;; Hardware stack levels used: 1
  1739 ;; Hardware stack levels required when called: 6
  1740 ;; This function calls:
  1741 ;;		_clcd_print
  1742 ;;		_clear_display
  1743 ;;		_set_time_screen
  1744 ;; This function is called by:
  1745 ;;		_main
  1746 ;; This function uses a non-reentrant model
  1747 ;;
  1748                           
  1749     0E1F                     _micro_mode:	
  1750                           ;psect for function _micro_mode
  1751                           
  1752                           
  1753                           ;incstack = 0
  1754                           ; Regs used in _micro_mode: [wreg-fsr0h+status,2+status,0+btemp+1+pclath+cstack]
  1755                           ;micro_mode@reset_flag stored from wreg
  1756     0E1F  1283               	bcf	3,5	;RP0=0, select bank0
  1757     0E20  1303               	bcf	3,6	;RP1=0, select bank0
  1758     0E21  00B9               	movwf	micro_mode@reset_flag
  1759     0E22                     l3021:
  1760                           
  1761                           ;microwave_def.c: 31: void micro_mode(unsigned char reset_flag);microwave_def.c: 32: {;m
      +                          icrowave_def.c: 33:     if (reset_flag == 0x20)
  1762     0E22  3020               	movlw	32
  1763     0E23  0639               	xorwf	micro_mode@reset_flag,w
  1764     0E24  1D03               	btfss	3,2
  1765     0E25  2E27               	goto	u2931
  1766     0E26  2E28               	goto	u2930
  1767     0E27                     u2931:
  1768     0E27  2E47               	goto	l3029
  1769     0E28                     u2930:
  1770     0E28                     l3023:
  1771                           
  1772                           ;microwave_def.c: 34:     {;microwave_def.c: 35:         clear_display();
  1773     0E28  120A  158A  2518  120A  158A  	fcall	_clear_display
  1774     0E2D                     l3025:
  1775                           
  1776                           ;microwave_def.c: 36:         clcd_print("Power = 900W", (0xC0 + 3));
  1777     0E2D  30A3               	movlw	low (STR_6| (0+32768))
  1778     0E2E  00F6               	movwf	clcd_print@str
  1779     0E2F  3085               	movlw	high (STR_6| (0+32768))
  1780     0E30  00F7               	movwf	clcd_print@str+1
  1781     0E31  30C3               	movlw	195
  1782     0E32  00F8               	movwf	clcd_print@addr
  1783     0E33  120A  158A  25F0  120A  158A  	fcall	_clcd_print
  1784     0E38                     l3027:
  1785                           
  1786                           ;microwave_def.c: 37:         _delay((unsigned long)((500)*(20000000/4000.0)));
  1787     0E38  300D               	movlw	13
  1788     0E39  1283               	bcf	3,5	;RP0=0, select bank0
  1789     0E3A  1303               	bcf	3,6	;RP1=0, select bank0
  1790     0E3B  00B8               	movwf	??_micro_mode+2
  1791     0E3C  30AF               	movlw	175
  1792     0E3D  00B7               	movwf	??_micro_mode+1
  1793     0E3E  30B5               	movlw	181
  1794     0E3F  00B6               	movwf	??_micro_mode
  1795     0E40                     u3007:
  1796     0E40  0BB6               	decfsz	??_micro_mode,f
  1797     0E41  2E40               	goto	u3007
  1798     0E42  0BB7               	decfsz	??_micro_mode+1,f
  1799     0E43  2E40               	goto	u3007
  1800     0E44  0BB8               	decfsz	??_micro_mode+2,f
  1801     0E45  2E40               	goto	u3007
  1802     0E46  2E47               	nop2
  1803     0E47                     l3029:
  1804                           
  1805                           ;microwave_def.c: 40:     if (operation_mode_flag == 0)
  1806     0E47  1283               	bcf	3,5	;RP0=0, select bank0
  1807     0E48  1303               	bcf	3,6	;RP1=0, select bank0
  1808     0E49  0851               	movf	_operation_mode_flag,w
  1809     0E4A  1D03               	btfss	3,2
  1810     0E4B  2E4D               	goto	u2941
  1811     0E4C  2E4E               	goto	u2940
  1812     0E4D                     u2941:
  1813     0E4D  2E53               	goto	l229
  1814     0E4E                     u2940:
  1815     0E4E                     l3031:
  1816                           
  1817                           ;microwave_def.c: 41:     {;microwave_def.c: 42:         set_time_screen();
  1818     0E4E  120A  118A  2024  120A  158A  	fcall	_set_time_screen
  1819     0E53                     l229:
  1820     0E53  0008               	return
  1821     0E54                     __end_of_micro_mode:
  1822                           
  1823                           	psect	text3
  1824     0D65                     __ptext3:	
  1825 ;; *************** function _init_config *****************
  1826 ;; Defined at:
  1827 ;;		line 8 in file "main.c"
  1828 ;; Parameters:    Size  Location     Type
  1829 ;;		None
  1830 ;; Auto vars:     Size  Location     Type
  1831 ;;		None
  1832 ;; Return value:  Size  Location     Type
  1833 ;;                  1    wreg      void 
  1834 ;; Registers used:
  1835 ;;		wreg, status,2, status,0, pclath, cstack
  1836 ;; Tracked objects:
  1837 ;;		On entry : 0/0
  1838 ;;		On exit  : 0/0
  1839 ;;		Unchanged: 0/0
  1840 ;; Data sizes:     COMMON   BANK0   BANK1   BANK3   BANK2
  1841 ;;      Params:         0       0       0       0       0
  1842 ;;      Locals:         0       0       0       0       0
  1843 ;;      Temps:          0       0       0       0       0
  1844 ;;      Totals:         0       0       0       0       0
  1845 ;;Total ram usage:        0 bytes
  1846 ;; Hardware stack levels used: 1
  1847 ;; Hardware stack levels required when called: 4
  1848 ;; This function calls:
  1849 ;;		_init_clcd
  1850 ;;		_init_matrix_keypad
  1851 ;;		_init_timer2
  1852 ;; This function is called by:
  1853 ;;		_main
  1854 ;; This function uses a non-reentrant model
  1855 ;;
  1856                           
  1857     0D65                     _init_config:	
  1858                           ;psect for function _init_config
  1859                           
  1860     0D65                     l3007:	
  1861                           ;incstack = 0
  1862                           ; Regs used in _init_config: [wreg+status,2+status,0+pclath+cstack]
  1863                           
  1864                           
  1865                           ;main.c: 11:     TRISC1 = 0;
  1866     0D65  120A  158A  24FD  120A  158A  	fcall	_init_clcd
  1867     0D6A                     l3009:
  1868                           
  1869                           ;main.c: 12:     TRISC2 = 0;
  1870     0D6A  120A  118A  27F3  120A  158A  	fcall	_init_timer2
  1871     0D6F                     l3011:
  1872                           
  1873                           ;main.c: 13: 
  1874     0D6F  120A  158A  2508  120A  158A  	fcall	_init_matrix_keypad
  1875     0D74                     l3013:
  1876                           
  1877                           ;main.c: 16:     GIE = 1;
  1878     0D74  1683               	bsf	3,5	;RP0=1, select bank1
  1879     0D75  1303               	bcf	3,6	;RP1=0, select bank1
  1880     0D76  1087               	bcf	7,1	;volatile
  1881     0D77                     l3015:
  1882                           
  1883                           ;main.c: 17: }
  1884     0D77  1107               	bcf	7,2	;volatile
  1885     0D78                     l3017:
  1886                           
  1887                           ;main.c: 20: {
  1888     0D78  170B               	bsf	11,6	;volatile
  1889     0D79                     l3019:
  1890                           
  1891                           ;main.c: 21:     init_config();
  1892     0D79  178B               	bsf	11,7	;volatile
  1893     0D7A                     l84:
  1894     0D7A  0008               	return
  1895     0D7B                     __end_of_init_config:
  1896                           
  1897                           	psect	text4
  1898     07F3                     __ptext4:	
  1899 ;; *************** function _init_timer2 *****************
  1900 ;; Defined at:
  1901 ;;		line 16 in file "timers.c"
  1902 ;; Parameters:    Size  Location     Type
  1903 ;;		None
  1904 ;; Auto vars:     Size  Location     Type
  1905 ;;		None
  1906 ;; Return value:  Size  Location     Type
  1907 ;;                  1    wreg      void 
  1908 ;; Registers used:
  1909 ;;		None
  1910 ;; Tracked objects:
  1911 ;;		On entry : 0/0
  1912 ;;		On exit  : 0/0
  1913 ;;		Unchanged: 0/0
  1914 ;; Data sizes:     COMMON   BANK0   BANK1   BANK3   BANK2
  1915 ;;      Params:         0       0       0       0       0
  1916 ;;      Locals:         0       0       0       0       0
  1917 ;;      Temps:          0       0       0       0       0
  1918 ;;      Totals:         0       0       0       0       0
  1919 ;;Total ram usage:        0 bytes
  1920 ;; Hardware stack levels used: 1
  1921 ;; Hardware stack levels required when called: 1
  1922 ;; This function calls:
  1923 ;;		Nothing
  1924 ;; This function is called by:
  1925 ;;		_init_config
  1926 ;; This function uses a non-reentrant model
  1927 ;;
  1928                           
  1929     07F3                     _init_timer2:	
  1930                           ;psect for function _init_timer2
  1931                           
  1932     07F3                     l1975:	
  1933                           ;incstack = 0
  1934                           ; Regs used in _init_timer2: []
  1935                           
  1936                           
  1937                           ;timers.c: 19:     T2CKPS0 = 1;
  1938     07F3  1283               	bcf	3,5	;RP0=0, select bank0
  1939     07F4  1303               	bcf	3,6	;RP1=0, select bank0
  1940     07F5  1412               	bsf	18,0	;volatile
  1941                           
  1942                           ;timers.c: 20:     T2CKPS1 = 1;
  1943     07F6  1492               	bsf	18,1	;volatile
  1944                           
  1945                           ;timers.c: 23:     PR2 = 250;
  1946     07F7  30FA               	movlw	250
  1947     07F8  1683               	bsf	3,5	;RP0=1, select bank1
  1948     07F9  1303               	bcf	3,6	;RP1=0, select bank1
  1949     07FA  0092               	movwf	18	;volatile
  1950                           
  1951                           ;timers.c: 26:     TMR2IE = 1;
  1952     07FB  148C               	bsf	12,1	;volatile
  1953                           
  1954                           ;timers.c: 29:     TMR2ON = 0;
  1955     07FC  1283               	bcf	3,5	;RP0=0, select bank0
  1956     07FD  1303               	bcf	3,6	;RP1=0, select bank0
  1957     07FE  1112               	bcf	18,2	;volatile
  1958     07FF                     l331:
  1959     07FF  0008               	return
  1960     0800                     __end_of_init_timer2:
  1961                           
  1962                           	psect	text5
  1963     0D08                     __ptext5:	
  1964 ;; *************** function _init_matrix_keypad *****************
  1965 ;; Defined at:
  1966 ;;		line 4 in file "matrix_keypad.c"
  1967 ;; Parameters:    Size  Location     Type
  1968 ;;		None
  1969 ;; Auto vars:     Size  Location     Type
  1970 ;;		None
  1971 ;; Return value:  Size  Location     Type
  1972 ;;                  1    wreg      void 
  1973 ;; Registers used:
  1974 ;;		wreg, status,2
  1975 ;; Tracked objects:
  1976 ;;		On entry : 0/0
  1977 ;;		On exit  : 0/0
  1978 ;;		Unchanged: 0/0
  1979 ;; Data sizes:     COMMON   BANK0   BANK1   BANK3   BANK2
  1980 ;;      Params:         0       0       0       0       0
  1981 ;;      Locals:         0       0       0       0       0
  1982 ;;      Temps:          0       0       0       0       0
  1983 ;;      Totals:         0       0       0       0       0
  1984 ;;Total ram usage:        0 bytes
  1985 ;; Hardware stack levels used: 1
  1986 ;; Hardware stack levels required when called: 1
  1987 ;; This function calls:
  1988 ;;		Nothing
  1989 ;; This function is called by:
  1990 ;;		_init_config
  1991 ;; This function uses a non-reentrant model
  1992 ;;
  1993                           
  1994     0D08                     _init_matrix_keypad:	
  1995                           ;psect for function _init_matrix_keypad
  1996                           
  1997     0D08                     l1977:	
  1998                           ;incstack = 0
  1999                           ; Regs used in _init_matrix_keypad: [wreg+status,2]
  2000                           
  2001                           
  2002                           ;matrix_keypad.c: 8:     TRISB = TRISB | 0x07;
  2003     0D08  1683               	bsf	3,5	;RP0=1, select bank1
  2004     0D09  1303               	bcf	3,6	;RP1=0, select bank1
  2005     0D0A  0806               	movf	6,w	;volatile
  2006     0D0B  3807               	iorlw	7
  2007     0D0C  0086               	movwf	6	;volatile
  2008                           
  2009                           ;matrix_keypad.c: 12:     TRISD = TRISD & 0xF0;
  2010     0D0D  0808               	movf	8,w	;volatile
  2011     0D0E  39F0               	andlw	240
  2012     0D0F  0088               	movwf	8	;volatile
  2013     0D10                     l1979:
  2014                           
  2015                           ;matrix_keypad.c: 15:     nRBPU = 0;
  2016     0D10  1381               	bcf	1,7	;volatile
  2017     0D11                     l1981:
  2018                           
  2019                           ;matrix_keypad.c: 18:     RD3 = 1;
  2020     0D11  1283               	bcf	3,5	;RP0=0, select bank0
  2021     0D12  1303               	bcf	3,6	;RP1=0, select bank0
  2022     0D13  1588               	bsf	8,3	;volatile
  2023     0D14                     l1983:
  2024                           
  2025                           ;matrix_keypad.c: 19:     RD2 = 1;
  2026     0D14  1508               	bsf	8,2	;volatile
  2027     0D15                     l1985:
  2028                           
  2029                           ;matrix_keypad.c: 20:     RD1 = 1;
  2030     0D15  1488               	bsf	8,1	;volatile
  2031     0D16                     l1987:
  2032                           
  2033                           ;matrix_keypad.c: 21:     RD0 = 1;
  2034     0D16  1408               	bsf	8,0	;volatile
  2035     0D17                     l133:
  2036     0D17  0008               	return
  2037     0D18                     __end_of_init_matrix_keypad:
  2038                           
  2039                           	psect	text6
  2040     0CFD                     __ptext6:	
  2041 ;; *************** function _init_clcd *****************
  2042 ;; Defined at:
  2043 ;;		line 43 in file "clcd.c"
  2044 ;; Parameters:    Size  Location     Type
  2045 ;;		None
  2046 ;; Auto vars:     Size  Location     Type
  2047 ;;		None
  2048 ;; Return value:  Size  Location     Type
  2049 ;;                  1    wreg      void 
  2050 ;; Registers used:
  2051 ;;		wreg, status,2, status,0, pclath, cstack
  2052 ;; Tracked objects:
  2053 ;;		On entry : 0/0
  2054 ;;		On exit  : 0/0
  2055 ;;		Unchanged: 0/0
  2056 ;; Data sizes:     COMMON   BANK0   BANK1   BANK3   BANK2
  2057 ;;      Params:         0       0       0       0       0
  2058 ;;      Locals:         0       0       0       0       0
  2059 ;;      Temps:          0       0       0       0       0
  2060 ;;      Totals:         0       0       0       0       0
  2061 ;;Total ram usage:        0 bytes
  2062 ;; Hardware stack levels used: 1
  2063 ;; Hardware stack levels required when called: 3
  2064 ;; This function calls:
  2065 ;;		_init_display_controller
  2066 ;; This function is called by:
  2067 ;;		_init_config
  2068 ;; This function uses a non-reentrant model
  2069 ;;
  2070                           
  2071     0CFD                     _init_clcd:	
  2072                           ;psect for function _init_clcd
  2073                           
  2074     0CFD                     l2925:	
  2075                           ;incstack = 0
  2076                           ; Regs used in _init_clcd: [wreg+status,2+status,0+pclath+cstack]
  2077                           
  2078                           
  2079                           ;clcd.c: 46:     TRISD = 0x00;
  2080     0CFD  1683               	bsf	3,5	;RP0=1, select bank1
  2081     0CFE  1303               	bcf	3,6	;RP1=0, select bank1
  2082     0CFF  0188               	clrf	8	;volatile
  2083     0D00                     l2927:
  2084                           
  2085                           ;clcd.c: 49:     TRISE2 = 0;
  2086     0D00  1109               	bcf	9,2	;volatile
  2087     0D01                     l2929:
  2088                           
  2089                           ;clcd.c: 50:     TRISE1 = 0;
  2090     0D01  1089               	bcf	9,1	;volatile
  2091     0D02                     l2931:
  2092                           
  2093                           ;clcd.c: 52:     init_display_controller();
  2094     0D02  120A  158A  279D  120A  158A  	fcall	_init_display_controller
  2095     0D07                     l23:
  2096     0D07  0008               	return
  2097     0D08                     __end_of_init_clcd:
  2098                           
  2099                           	psect	text7
  2100     0F9D                     __ptext7:	
  2101 ;; *************** function _init_display_controller *****************
  2102 ;; Defined at:
  2103 ;;		line 20 in file "clcd.c"
  2104 ;; Parameters:    Size  Location     Type
  2105 ;;		None
  2106 ;; Auto vars:     Size  Location     Type
  2107 ;;		None
  2108 ;; Return value:  Size  Location     Type
  2109 ;;                  1    wreg      void 
  2110 ;; Registers used:
  2111 ;;		wreg, status,2, status,0, pclath, cstack
  2112 ;; Tracked objects:
  2113 ;;		On entry : 0/0
  2114 ;;		On exit  : 0/0
  2115 ;;		Unchanged: 0/0
  2116 ;; Data sizes:     COMMON   BANK0   BANK1   BANK3   BANK2
  2117 ;;      Params:         0       0       0       0       0
  2118 ;;      Locals:         0       0       0       0       0
  2119 ;;      Temps:          2       0       0       0       0
  2120 ;;      Totals:         2       0       0       0       0
  2121 ;;Total ram usage:        2 bytes
  2122 ;; Hardware stack levels used: 1
  2123 ;; Hardware stack levels required when called: 2
  2124 ;; This function calls:
  2125 ;;		_clcd_write
  2126 ;; This function is called by:
  2127 ;;		_init_clcd
  2128 ;; This function uses a non-reentrant model
  2129 ;;
  2130                           
  2131     0F9D                     _init_display_controller:	
  2132                           ;psect for function _init_display_controller
  2133                           
  2134     0F9D                     l2797:	
  2135                           ;incstack = 0
  2136                           ; Regs used in _init_display_controller: [wreg+status,2+status,0+pclath+cstack]
  2137                           
  2138                           
  2139                           ;clcd.c: 23:     _delay((unsigned long)((30)*(20000000/4000.0)));
  2140     0F9D  30C3               	movlw	195
  2141     0F9E  00F7               	movwf	??_init_display_controller+1
  2142     0F9F  30CD               	movlw	205
  2143     0FA0  00F6               	movwf	??_init_display_controller
  2144     0FA1                     u3017:
  2145     0FA1  0BF6               	decfsz	??_init_display_controller,f
  2146     0FA2  2FA1               	goto	u3017
  2147     0FA3  0BF7               	decfsz	??_init_display_controller+1,f
  2148     0FA4  2FA1               	goto	u3017
  2149     0FA5                     l2799:
  2150                           
  2151                           ;clcd.c: 26:     clcd_write(0x33, 0);
  2152     0FA5  01F2               	clrf	clcd_write@mode
  2153     0FA6  3033               	movlw	51
  2154     0FA7  120A  158A  2654  120A  158A  	fcall	_clcd_write
  2155     0FAC                     l2801:
  2156                           
  2157                           ;clcd.c: 27:     _delay((unsigned long)((4100)*(20000000/4000000.0)));
  2158     0FAC  301B               	movlw	27
  2159     0FAD  00F7               	movwf	??_init_display_controller+1
  2160     0FAE  309E               	movlw	158
  2161     0FAF  00F6               	movwf	??_init_display_controller
  2162     0FB0                     u3027:
  2163     0FB0  0BF6               	decfsz	??_init_display_controller,f
  2164     0FB1  2FB0               	goto	u3027
  2165     0FB2  0BF7               	decfsz	??_init_display_controller+1,f
  2166     0FB3  2FB0               	goto	u3027
  2167     0FB4  0000               	nop
  2168                           
  2169                           ;clcd.c: 28:     clcd_write(0x33, 0);
  2170     0FB5  01F2               	clrf	clcd_write@mode
  2171     0FB6  3033               	movlw	51
  2172     0FB7  120A  158A  2654  120A  158A  	fcall	_clcd_write
  2173     0FBC                     l2803:
  2174                           
  2175                           ;clcd.c: 29:     _delay((unsigned long)((100)*(20000000/4000000.0)));
  2176     0FBC  30A6               	movlw	166
  2177     0FBD  00F6               	movwf	??_init_display_controller
  2178     0FBE                     u3037:
  2179     0FBE  0BF6               	decfsz	??_init_display_controller,f
  2180     0FBF  2FBE               	goto	u3037
  2181     0FC0  0000               	nop
  2182     0FC1                     l2805:
  2183                           
  2184                           ;clcd.c: 30:     clcd_write(0x33, 0);
  2185     0FC1  01F2               	clrf	clcd_write@mode
  2186     0FC2  3033               	movlw	51
  2187     0FC3  120A  158A  2654  120A  158A  	fcall	_clcd_write
  2188     0FC8                     l2807:
  2189                           
  2190                           ;clcd.c: 31:     _delay((unsigned long)((1)*(20000000/4000000.0)));
  2191     0FC8  2FC9               	nop2	;2 cycle nop
  2192     0FC9  2FCA               	nop2	;2 cycle nop
  2193     0FCA  0000               	nop
  2194     0FCB                     l2809:
  2195                           
  2196                           ;clcd.c: 33:     clcd_write(0x02, 0);
  2197     0FCB  01F2               	clrf	clcd_write@mode
  2198     0FCC  3002               	movlw	2
  2199     0FCD  120A  158A  2654  120A  158A  	fcall	_clcd_write
  2200     0FD2                     l2811:
  2201                           
  2202                           ;clcd.c: 34:     _delay((unsigned long)((100)*(20000000/4000000.0)));
  2203     0FD2  30A6               	movlw	166
  2204     0FD3  00F6               	movwf	??_init_display_controller
  2205     0FD4                     u3047:
  2206     0FD4  0BF6               	decfsz	??_init_display_controller,f
  2207     0FD5  2FD4               	goto	u3047
  2208     0FD6  0000               	nop
  2209                           
  2210                           ;clcd.c: 35:     clcd_write(0x28, 0);
  2211     0FD7  01F2               	clrf	clcd_write@mode
  2212     0FD8  3028               	movlw	40
  2213     0FD9  120A  158A  2654  120A  158A  	fcall	_clcd_write
  2214     0FDE                     l2813:
  2215                           
  2216                           ;clcd.c: 36:     _delay((unsigned long)((100)*(20000000/4000000.0)));
  2217     0FDE  30A6               	movlw	166
  2218     0FDF  00F6               	movwf	??_init_display_controller
  2219     0FE0                     u3057:
  2220     0FE0  0BF6               	decfsz	??_init_display_controller,f
  2221     0FE1  2FE0               	goto	u3057
  2222     0FE2  0000               	nop
  2223     0FE3                     l2815:
  2224                           
  2225                           ;clcd.c: 37:     clcd_write(0x01, 0);
  2226     0FE3  01F2               	clrf	clcd_write@mode
  2227     0FE4  3001               	movlw	1
  2228     0FE5  120A  158A  2654  120A  158A  	fcall	_clcd_write
  2229                           
  2230                           ;clcd.c: 38:     _delay((unsigned long)((500)*(20000000/4000000.0)));
  2231     0FEA  3004               	movlw	4
  2232     0FEB  00F7               	movwf	??_init_display_controller+1
  2233     0FEC  303D               	movlw	61
  2234     0FED  00F6               	movwf	??_init_display_controller
  2235     0FEE                     u3067:
  2236     0FEE  0BF6               	decfsz	??_init_display_controller,f
  2237     0FEF  2FEE               	goto	u3067
  2238     0FF0  0BF7               	decfsz	??_init_display_controller+1,f
  2239     0FF1  2FEE               	goto	u3067
  2240     0FF2  2FF3               	nop2
  2241     0FF3                     l2817:
  2242                           
  2243                           ;clcd.c: 39:     clcd_write(0x0C, 0);
  2244     0FF3  01F2               	clrf	clcd_write@mode
  2245     0FF4  300C               	movlw	12
  2246     0FF5  120A  158A  2654  120A  158A  	fcall	_clcd_write
  2247     0FFA                     l2819:
  2248                           
  2249                           ;clcd.c: 40:     _delay((unsigned long)((100)*(20000000/4000000.0)));
  2250     0FFA  30A6               	movlw	166
  2251     0FFB  00F6               	movwf	??_init_display_controller
  2252     0FFC                     u3077:
  2253     0FFC  0BF6               	decfsz	??_init_display_controller,f
  2254     0FFD  2FFC               	goto	u3077
  2255     0FFE  0000               	nop
  2256     0FFF                     l20:
  2257     0FFF  0008               	return
  2258     1000                     __end_of_init_display_controller:
  2259                           
  2260                           	psect	text8
  2261     0D3C                     __ptext8:	
  2262 ;; *************** function _convention_mode *****************
  2263 ;; Defined at:
  2264 ;;		line 206 in file "microwave_def.c"
  2265 ;; Parameters:    Size  Location     Type
  2266 ;;  reset_flag      1    wreg     unsigned char 
  2267 ;; Auto vars:     Size  Location     Type
  2268 ;;  reset_flag      1   36[BANK0 ] unsigned char 
  2269 ;; Return value:  Size  Location     Type
  2270 ;;                  1    wreg      void 
  2271 ;; Registers used:
  2272 ;;		wreg, fsr0l, fsr0h, status,2, status,0, btemp+1, pclath, cstack
  2273 ;; Tracked objects:
  2274 ;;		On entry : 0/0
  2275 ;;		On exit  : 0/0
  2276 ;;		Unchanged: 0/0
  2277 ;; Data sizes:     COMMON   BANK0   BANK1   BANK3   BANK2
  2278 ;;      Params:         0       0       0       0       0
  2279 ;;      Locals:         0       1       0       0       0
  2280 ;;      Temps:          0       0       0       0       0
  2281 ;;      Totals:         0       1       0       0       0
  2282 ;;Total ram usage:        1 bytes
  2283 ;; Hardware stack levels used: 1
  2284 ;; Hardware stack levels required when called: 7
  2285 ;; This function calls:
  2286 ;;		_clear_display
  2287 ;;		_set_temp
  2288 ;; This function is called by:
  2289 ;;		_main
  2290 ;; This function uses a non-reentrant model
  2291 ;;
  2292                           
  2293     0D3C                     _convention_mode:	
  2294                           ;psect for function _convention_mode
  2295                           
  2296                           
  2297                           ;incstack = 0
  2298                           ; Regs used in _convention_mode: [wreg-fsr0h+status,2+status,0+btemp+1+pclath+cstack]
  2299                           ;convention_mode@reset_flag stored from wreg
  2300     0D3C  1283               	bcf	3,5	;RP0=0, select bank0
  2301     0D3D  1303               	bcf	3,6	;RP1=0, select bank0
  2302     0D3E  00C4               	movwf	convention_mode@reset_flag
  2303     0D3F                     l3033:
  2304                           
  2305                           ;microwave_def.c: 206: void convention_mode(unsigned char reset_flag);microwave_def.c: 2
      +                          07: {;microwave_def.c: 208:     if (reset_flag == 0x20)
  2306     0D3F  3020               	movlw	32
  2307     0D40  0644               	xorwf	convention_mode@reset_flag,w
  2308     0D41  1D03               	btfss	3,2
  2309     0D42  2D44               	goto	u2951
  2310     0D43  2D45               	goto	u2950
  2311     0D44                     u2951:
  2312     0D44  2D4F               	goto	l271
  2313     0D45                     u2950:
  2314     0D45                     l3035:
  2315                           
  2316                           ;microwave_def.c: 209:     {;microwave_def.c: 210:         clear_display();
  2317     0D45  120A  158A  2518  120A  158A  	fcall	_clear_display
  2318     0D4A                     l3037:
  2319                           
  2320                           ;microwave_def.c: 211:         set_temp();
  2321     0D4A  120A  118A  2339  120A  158A  	fcall	_set_temp
  2322     0D4F                     l271:
  2323     0D4F  0008               	return
  2324     0D50                     __end_of_convention_mode:
  2325                           
  2326                           	psect	text9
  2327     0339                     __ptext9:	
  2328 ;; *************** function _set_temp *****************
  2329 ;; Defined at:
  2330 ;;		line 215 in file "microwave_def.c"
  2331 ;; Parameters:    Size  Location     Type
  2332 ;;		None
  2333 ;; Auto vars:     Size  Location     Type
  2334 ;;  i               2   33[BANK0 ] int 
  2335 ;;  temp_key_cou    2   31[BANK0 ] int 
  2336 ;;  value           2   26[BANK0 ] int 
  2337 ;;  key             1   35[BANK0 ] unsigned char 
  2338 ;;  preheat_flag    1   30[BANK0 ] unsigned char 
  2339 ;; Return value:  Size  Location     Type
  2340 ;;                  1    wreg      void 
  2341 ;; Registers used:
  2342 ;;		wreg, fsr0l, fsr0h, status,2, status,0, btemp+1, pclath, cstack
  2343 ;; Tracked objects:
  2344 ;;		On entry : 0/0
  2345 ;;		On exit  : 0/0
  2346 ;;		Unchanged: 0/0
  2347 ;; Data sizes:     COMMON   BANK0   BANK1   BANK3   BANK2
  2348 ;;      Params:         0       0       0       0       0
  2349 ;;      Locals:         0      10       0       0       0
  2350 ;;      Temps:          0       4       0       0       0
  2351 ;;      Totals:         0      14       0       0       0
  2352 ;;Total ram usage:       14 bytes
  2353 ;; Hardware stack levels used: 1
  2354 ;; Hardware stack levels required when called: 6
  2355 ;; This function calls:
  2356 ;;		___wmul
  2357 ;;		_clcd_print
  2358 ;;		_clcd_putch
  2359 ;;		_memset
  2360 ;;		_preheat_screen
  2361 ;;		_read_matrix_keypad
  2362 ;;		_set_time_screen
  2363 ;; This function is called by:
  2364 ;;		_convention_mode
  2365 ;; This function uses a non-reentrant model
  2366 ;;
  2367                           
  2368     0339                     _set_temp:	
  2369                           ;psect for function _set_temp
  2370                           
  2371     0339                     l2933:	
  2372                           ;incstack = 0
  2373                           ; Regs used in _set_temp: [wreg-fsr0h+status,2+status,0+btemp+1+pclath+cstack]
  2374                           
  2375                           
  2376                           ;microwave_def.c: 217:     unsigned char preheat_flag = 0, key;
  2377     0339  1283               	bcf	3,5	;RP0=0, select bank0
  2378     033A  1303               	bcf	3,6	;RP1=0, select bank0
  2379     033B  01BE               	clrf	set_temp@preheat_flag
  2380     033C                     l2935:
  2381                           
  2382                           ;microwave_def.c: 218:     static char blink_time = 0, blink = 0;;microwave_def.c: 219: 
      +                              int temp_key_count = 2, value;
  2383     033C  3002               	movlw	2
  2384     033D  00BF               	movwf	set_temp@temp_key_count
  2385     033E  3000               	movlw	0
  2386     033F  00C0               	movwf	set_temp@temp_key_count+1
  2387     0340                     l2937:
  2388                           
  2389                           ;microwave_def.c: 221:     memset(temp_arr, 0, sizeof(temp_arr));
  2390     0340  305C               	movlw	(low (_temp_arr| 0))& (0+255)
  2391     0341  00F2               	movwf	memset@dest
  2392     0342  3000               	movlw	0
  2393     0343  00F3               	movwf	memset@c
  2394     0344  00F4               	movwf	memset@c+1
  2395     0345  3006               	movlw	6
  2396     0346  00F5               	movwf	memset@n
  2397     0347  3000               	movlw	0
  2398     0348  00F6               	movwf	memset@n+1
  2399     0349  120A  118A  24DE  120A  118A  	fcall	_memset
  2400     034E                     l2939:
  2401                           
  2402                           ;microwave_def.c: 222:     clcd_print("SET Temp <*C>", (0x80 + 0));
  2403     034E  3095               	movlw	low (STR_20| (0+32768))
  2404     034F  00F6               	movwf	clcd_print@str
  2405     0350  3085               	movlw	high (STR_20| (0+32768))
  2406     0351  00F7               	movwf	clcd_print@str+1
  2407     0352  3080               	movlw	128
  2408     0353  00F8               	movwf	clcd_print@addr
  2409     0354  120A  158A  25F0  120A  118A  	fcall	_clcd_print
  2410     0359                     l2941:
  2411                           
  2412                           ;microwave_def.c: 223:     clcd_print("TEMP = ", (0xC0 + 0));
  2413     0359  30F0               	movlw	low (STR_21| (0+32768))
  2414     035A  00F6               	movwf	clcd_print@str
  2415     035B  3085               	movlw	high (STR_21| (0+32768))
  2416     035C  00F7               	movwf	clcd_print@str+1
  2417     035D  30C0               	movlw	192
  2418     035E  00F8               	movwf	clcd_print@addr
  2419     035F  120A  158A  25F0  120A  118A  	fcall	_clcd_print
  2420     0364                     l2943:
  2421                           
  2422                           ;microwave_def.c: 224:     clcd_print("*:CLEAR  #:ENTER", (0xD0 + 0));
  2423     0364  3044               	movlw	low (STR_22| (0+32768))
  2424     0365  00F6               	movwf	clcd_print@str
  2425     0366  3085               	movlw	high (STR_22| (0+32768))
  2426     0367  00F7               	movwf	clcd_print@str+1
  2427     0368  30D0               	movlw	208
  2428     0369  00F8               	movwf	clcd_print@addr
  2429     036A  120A  158A  25F0  120A  118A  	fcall	_clcd_print
  2430                           
  2431                           ;microwave_def.c: 226:     while (!preheat_flag)
  2432     036F  2C62               	goto	l3001
  2433     0370                     l2945:
  2434                           
  2435                           ;microwave_def.c: 227:     {;microwave_def.c: 228:         key = read_matrix_keypad(1);
  2436     0370  3001               	movlw	1
  2437     0371  120A  158A  257B  120A  118A  	fcall	_read_matrix_keypad
  2438     0376  1283               	bcf	3,5	;RP0=0, select bank0
  2439     0377  1303               	bcf	3,6	;RP1=0, select bank0
  2440     0378  00C3               	movwf	set_temp@key
  2441     0379                     l2947:
  2442                           
  2443                           ;microwave_def.c: 230:         if (key == '#')
  2444     0379  3023               	movlw	35
  2445     037A  0643               	xorwf	set_temp@key,w
  2446     037B  1D03               	btfss	3,2
  2447     037C  2B7E               	goto	u2801
  2448     037D  2B7F               	goto	u2800
  2449     037E                     u2801:
  2450     037E  2B82               	goto	l2951
  2451     037F                     u2800:
  2452     037F                     l2949:
  2453                           
  2454                           ;microwave_def.c: 231:             preheat_flag = 1;
  2455     037F  3001               	movlw	1
  2456     0380  00BE               	movwf	set_temp@preheat_flag
  2457     0381  2C12               	goto	l2977
  2458     0382                     l2951:
  2459     0382  302A               	movlw	42
  2460     0383  0643               	xorwf	set_temp@key,w
  2461     0384  1D03               	btfss	3,2
  2462     0385  2B87               	goto	u2811
  2463     0386  2B88               	goto	u2810
  2464     0387                     u2811:
  2465     0387  2B9D               	goto	l2957
  2466     0388                     u2810:
  2467     0388                     l2953:
  2468                           
  2469                           ;microwave_def.c: 234:         {;microwave_def.c: 235:             memset(temp_arr, 0, s
      +                          izeof(temp_arr));
  2470     0388  305C               	movlw	(low (_temp_arr| 0))& (0+255)
  2471     0389  00F2               	movwf	memset@dest
  2472     038A  3000               	movlw	0
  2473     038B  00F3               	movwf	memset@c
  2474     038C  00F4               	movwf	memset@c+1
  2475     038D  3006               	movlw	6
  2476     038E  00F5               	movwf	memset@n
  2477     038F  3000               	movlw	0
  2478     0390  00F6               	movwf	memset@n+1
  2479     0391  120A  118A  24DE  120A  118A  	fcall	_memset
  2480     0396                     l2955:
  2481                           
  2482                           ;microwave_def.c: 236:             temp_key_count = 2;
  2483     0396  3002               	movlw	2
  2484     0397  1283               	bcf	3,5	;RP0=0, select bank0
  2485     0398  1303               	bcf	3,6	;RP1=0, select bank0
  2486     0399  00BF               	movwf	set_temp@temp_key_count
  2487     039A  3000               	movlw	0
  2488     039B  00C0               	movwf	set_temp@temp_key_count+1
  2489                           
  2490                           ;microwave_def.c: 237:         }
  2491     039C  2C12               	goto	l2977
  2492     039D                     l2957:
  2493     039D  0A43               	incf	set_temp@key,w
  2494     039E  1903               	btfsc	3,2
  2495     039F  2BA1               	goto	u2821
  2496     03A0  2BA2               	goto	u2820
  2497     03A1                     u2821:
  2498     03A1  2C12               	goto	l2977
  2499     03A2                     u2820:
  2500     03A2                     l2959:
  2501     03A2  300A               	movlw	10
  2502     03A3  0243               	subwf	set_temp@key,w
  2503     03A4  1803               	skipnc
  2504     03A5  2BA7               	goto	u2831
  2505     03A6  2BA8               	goto	u2830
  2506     03A7                     u2831:
  2507     03A7  2C12               	goto	l2977
  2508     03A8                     u2830:
  2509     03A8                     l2961:
  2510     03A8  1BC0               	btfsc	set_temp@temp_key_count+1,7
  2511     03A9  2BAB               	goto	u2841
  2512     03AA  2BAC               	goto	u2840
  2513     03AB                     u2841:
  2514     03AB  2C12               	goto	l2977
  2515     03AC                     u2840:
  2516     03AC                     l2963:
  2517                           
  2518                           ;microwave_def.c: 239:         {;microwave_def.c: 240:             temp_arr[0] = temp_ar
      +                          r[1];
  2519     03AC  085F               	movf	_temp_arr+3,w
  2520     03AD  00DD               	movwf	_temp_arr+1
  2521     03AE  085E               	movf	_temp_arr+2,w
  2522     03AF  00DC               	movwf	_temp_arr
  2523                           
  2524                           ;microwave_def.c: 241:             temp_arr[1] = temp_arr[2];
  2525     03B0  0861               	movf	_temp_arr+5,w
  2526     03B1  00DF               	movwf	_temp_arr+3
  2527     03B2  0860               	movf	_temp_arr+4,w
  2528     03B3  00DE               	movwf	_temp_arr+2
  2529                           
  2530                           ;microwave_def.c: 242:             temp_arr[2] = key;
  2531     03B4  0843               	movf	set_temp@key,w
  2532     03B5  00B6               	movwf	??_set_temp
  2533     03B6  01B7               	clrf	??_set_temp+1
  2534     03B7  0836               	movf	??_set_temp,w
  2535     03B8  00E0               	movwf	_temp_arr+4
  2536     03B9  0837               	movf	??_set_temp+1,w
  2537     03BA  00E1               	movwf	_temp_arr+5
  2538     03BB                     l2965:
  2539                           
  2540                           ;microwave_def.c: 244:             value = temp_arr[0] * 100 + temp_arr[1] * 10 + temp_a
      +                          rr[2];
  2541     03BB  085D               	movf	_temp_arr+1,w
  2542     03BC  00F3               	movwf	___wmul@multiplier+1
  2543     03BD  085C               	movf	_temp_arr,w
  2544     03BE  00F2               	movwf	___wmul@multiplier
  2545     03BF  3064               	movlw	100
  2546     03C0  00F4               	movwf	___wmul@multiplicand
  2547     03C1  3000               	movlw	0
  2548     03C2  00F5               	movwf	___wmul@multiplicand+1
  2549     03C3  120A  158A  259E  120A  118A  	fcall	___wmul
  2550     03C8  0872               	movf	?___wmul,w
  2551     03C9  1283               	bcf	3,5	;RP0=0, select bank0
  2552     03CA  1303               	bcf	3,6	;RP1=0, select bank0
  2553     03CB  00B6               	movwf	??_set_temp
  2554     03CC  0873               	movf	?___wmul+1,w
  2555     03CD  00B7               	movwf	??_set_temp+1
  2556     03CE  085F               	movf	_temp_arr+3,w
  2557     03CF  00F3               	movwf	___wmul@multiplier+1
  2558     03D0  085E               	movf	_temp_arr+2,w
  2559     03D1  00F2               	movwf	___wmul@multiplier
  2560     03D2  300A               	movlw	10
  2561     03D3  00F4               	movwf	___wmul@multiplicand
  2562     03D4  3000               	movlw	0
  2563     03D5  00F5               	movwf	___wmul@multiplicand+1
  2564     03D6  120A  158A  259E  120A  118A  	fcall	___wmul
  2565     03DB  0872               	movf	?___wmul,w
  2566     03DC  1283               	bcf	3,5	;RP0=0, select bank0
  2567     03DD  1303               	bcf	3,6	;RP1=0, select bank0
  2568     03DE  0736               	addwf	??_set_temp,w
  2569     03DF  00B8               	movwf	??_set_temp+2
  2570     03E0  0873               	movf	?___wmul+1,w
  2571     03E1  1803               	skipnc
  2572     03E2  0A73               	incf	?___wmul+1,w
  2573     03E3  0737               	addwf	??_set_temp+1,w
  2574     03E4  00B9               	movwf	??_set_temp+3
  2575     03E5  0860               	movf	_temp_arr+4,w
  2576     03E6  0738               	addwf	??_set_temp+2,w
  2577     03E7  00BA               	movwf	set_temp@value
  2578     03E8  0861               	movf	_temp_arr+5,w
  2579     03E9  1803               	skipnc
  2580     03EA  0A61               	incf	_temp_arr+5,w
  2581     03EB  0739               	addwf	??_set_temp+3,w
  2582     03EC  00BB               	movwf	set_temp@value+1
  2583     03ED                     l2967:
  2584                           
  2585                           ;microwave_def.c: 246:             if (value > 180)
  2586     03ED  083B               	movf	set_temp@value+1,w
  2587     03EE  3A80               	xorlw	128
  2588     03EF  00FF               	movwf	btemp+1
  2589     03F0  3080               	movlw	128
  2590     03F1  027F               	subwf	btemp+1,w
  2591     03F2  1D03               	skipz
  2592     03F3  2BF6               	goto	u2855
  2593     03F4  30B5               	movlw	181
  2594     03F5  023A               	subwf	set_temp@value,w
  2595     03F6                     u2855:
  2596     03F6  1C03               	skipc
  2597     03F7  2BF9               	goto	u2851
  2598     03F8  2BFA               	goto	u2850
  2599     03F9                     u2851:
  2600     03F9  2C0A               	goto	l2975
  2601     03FA                     u2850:
  2602     03FA                     l2969:
  2603                           
  2604                           ;microwave_def.c: 247:             {;microwave_def.c: 248:                 temp_arr[0] =
      +                           1;
  2605     03FA  3001               	movlw	1
  2606     03FB  1283               	bcf	3,5	;RP0=0, select bank0
  2607     03FC  1303               	bcf	3,6	;RP1=0, select bank0
  2608     03FD  00DC               	movwf	_temp_arr
  2609     03FE  3000               	movlw	0
  2610     03FF  00DD               	movwf	_temp_arr+1
  2611                           
  2612                           ;microwave_def.c: 249:                 temp_arr[1] = 8;
  2613     0400  3008               	movlw	8
  2614     0401  00DE               	movwf	_temp_arr+2
  2615     0402  3000               	movlw	0
  2616     0403  00DF               	movwf	_temp_arr+3
  2617     0404                     l2971:
  2618                           
  2619                           ;microwave_def.c: 250:                 temp_arr[2] = 0;
  2620     0404  01E0               	clrf	_temp_arr+4
  2621     0405  01E1               	clrf	_temp_arr+5
  2622     0406                     l2973:
  2623                           
  2624                           ;microwave_def.c: 251:                 temp_key_count = 2;
  2625     0406  3002               	movlw	2
  2626     0407  00BF               	movwf	set_temp@temp_key_count
  2627     0408  3000               	movlw	0
  2628     0409  00C0               	movwf	set_temp@temp_key_count+1
  2629     040A                     l2975:
  2630                           
  2631                           ;microwave_def.c: 254:             temp_key_count--;
  2632     040A  30FF               	movlw	255
  2633     040B  1283               	bcf	3,5	;RP0=0, select bank0
  2634     040C  1303               	bcf	3,6	;RP1=0, select bank0
  2635     040D  07BF               	addwf	set_temp@temp_key_count,f
  2636     040E  1803               	skipnc
  2637     040F  0AC0               	incf	set_temp@temp_key_count+1,f
  2638     0410  30FF               	movlw	255
  2639     0411  07C0               	addwf	set_temp@temp_key_count+1,f
  2640     0412                     l2977:
  2641                           
  2642                           ;microwave_def.c: 257:         if (++blink_time >= 5)
  2643     0412  3001               	movlw	1
  2644     0413  07CE               	addwf	set_temp@blink_time,f
  2645     0414  3005               	movlw	5
  2646     0415  024E               	subwf	set_temp@blink_time,w
  2647     0416  1C03               	skipc
  2648     0417  2C19               	goto	u2861
  2649     0418  2C1A               	goto	u2860
  2650     0419                     u2861:
  2651     0419  2C23               	goto	l2983
  2652     041A                     u2860:
  2653     041A                     l2979:
  2654                           
  2655                           ;microwave_def.c: 258:         {;microwave_def.c: 259:             blink_time = 0;
  2656     041A  01CE               	clrf	set_temp@blink_time
  2657     041B                     l2981:
  2658                           
  2659                           ;microwave_def.c: 260:             blink = !blink;
  2660     041B  084D               	movf	set_temp@blink,w
  2661     041C  1903               	btfsc	3,2
  2662     041D  2C1F               	goto	u2871
  2663     041E  2C21               	goto	u2870
  2664     041F                     u2871:
  2665     041F  3001               	movlw	1
  2666     0420  2C22               	goto	u2880
  2667     0421                     u2870:
  2668     0421  3000               	movlw	0
  2669     0422                     u2880:
  2670     0422  00CD               	movwf	set_temp@blink
  2671     0423                     l2983:
  2672                           
  2673                           ;microwave_def.c: 263:         for (int i = 0; i < 3; i++)
  2674     0423  01C1               	clrf	set_temp@i
  2675     0424  01C2               	clrf	set_temp@i+1
  2676     0425                     l2989:
  2677                           
  2678                           ;microwave_def.c: 264:         {;microwave_def.c: 265:             clcd_putch(blink ? ' 
      +                          ' : '0' + temp_arr[i], (0xC0 + 8 + i));
  2679     0425  1283               	bcf	3,5	;RP0=0, select bank0
  2680     0426  1303               	bcf	3,6	;RP1=0, select bank0
  2681     0427  084D               	movf	set_temp@blink,w
  2682     0428  1D03               	btfss	3,2
  2683     0429  2C2B               	goto	u2891
  2684     042A  2C2C               	goto	u2890
  2685     042B                     u2891:
  2686     042B  2C40               	goto	l2993
  2687     042C                     u2890:
  2688     042C                     l2991:
  2689     042C  0841               	movf	set_temp@i,w
  2690     042D  00B6               	movwf	??_set_temp
  2691     042E  0736               	addwf	??_set_temp,w
  2692     042F  3E5C               	addlw	(low (_temp_arr| 0))& (0+255)
  2693     0430  0084               	movwf	4
  2694     0431  1383               	bcf	3,7	;select IRP bank0
  2695     0432  0800               	movf	0,w
  2696     0433  00B7               	movwf	??_set_temp+1
  2697     0434  0A84               	incf	4,f
  2698     0435  0800               	movf	0,w
  2699     0436  00B8               	movwf	??_set_temp+2
  2700     0437  0837               	movf	??_set_temp+1,w
  2701     0438  3E30               	addlw	48
  2702     0439  00BC               	movwf	_set_temp$220
  2703     043A  0838               	movf	??_set_temp+2,w
  2704     043B  1803               	skipnc
  2705     043C  3E01               	addlw	1
  2706     043D  3E00               	addlw	0
  2707     043E  00BD               	movwf	_set_temp$220+1
  2708     043F  2C44               	goto	l2995
  2709     0440                     l2993:
  2710     0440  3020               	movlw	32
  2711     0441  00BC               	movwf	_set_temp$220
  2712     0442  3000               	movlw	0
  2713     0443  00BD               	movwf	_set_temp$220+1
  2714     0444                     l2995:
  2715     0444  0841               	movf	set_temp@i,w
  2716     0445  3EC8               	addlw	200
  2717     0446  00F8               	movwf	clcd_putch@addr
  2718     0447  083C               	movf	_set_temp$220,w
  2719     0448  120A  158A  2550  120A  118A  	fcall	_clcd_putch
  2720     044D                     l2997:
  2721                           
  2722                           ;microwave_def.c: 266:         }
  2723     044D  3001               	movlw	1
  2724     044E  1283               	bcf	3,5	;RP0=0, select bank0
  2725     044F  1303               	bcf	3,6	;RP1=0, select bank0
  2726     0450  07C1               	addwf	set_temp@i,f
  2727     0451  1803               	skipnc
  2728     0452  0AC2               	incf	set_temp@i+1,f
  2729     0453  3000               	movlw	0
  2730     0454  07C2               	addwf	set_temp@i+1,f
  2731     0455                     l2999:
  2732     0455  0842               	movf	set_temp@i+1,w
  2733     0456  3A80               	xorlw	128
  2734     0457  00FF               	movwf	btemp+1
  2735     0458  3080               	movlw	128
  2736     0459  027F               	subwf	btemp+1,w
  2737     045A  1D03               	skipz
  2738     045B  2C5E               	goto	u2905
  2739     045C  3003               	movlw	3
  2740     045D  0241               	subwf	set_temp@i,w
  2741     045E                     u2905:
  2742     045E  1C03               	skipc
  2743     045F  2C61               	goto	u2901
  2744     0460  2C62               	goto	u2900
  2745     0461                     u2901:
  2746     0461  2C25               	goto	l2989
  2747     0462                     u2900:
  2748     0462                     l3001:
  2749                           
  2750                           ;microwave_def.c: 226:     while (!preheat_flag)
  2751     0462  1283               	bcf	3,5	;RP0=0, select bank0
  2752     0463  1303               	bcf	3,6	;RP1=0, select bank0
  2753     0464  083E               	movf	set_temp@preheat_flag,w
  2754     0465  1903               	btfsc	3,2
  2755     0466  2C68               	goto	u2911
  2756     0467  2C69               	goto	u2910
  2757     0468                     u2911:
  2758     0468  2B70               	goto	l2945
  2759     0469                     u2910:
  2760     0469                     l3003:
  2761                           
  2762                           ;microwave_def.c: 269:     if (preheat_screen() == 0x01)
  2763     0469  120A  118A  2785  120A  118A  	fcall	_preheat_screen
  2764     046E  3A01               	xorlw	1
  2765     046F  1D03               	skipz
  2766     0470  2C72               	goto	u2921
  2767     0471  2C73               	goto	u2920
  2768     0472                     u2921:
  2769     0472  2C78               	goto	l295
  2770     0473                     u2920:
  2771     0473                     l3005:
  2772                           
  2773                           ;microwave_def.c: 270:     {;microwave_def.c: 271:         set_time_screen();
  2774     0473  120A  118A  2024  120A  118A  	fcall	_set_time_screen
  2775     0478                     l295:
  2776     0478  0008               	return
  2777     0479                     __end_of_set_temp:
  2778                           
  2779                           	psect	text10
  2780     0024                     __ptext10:	
  2781 ;; *************** function _set_time_screen *****************
  2782 ;; Defined at:
  2783 ;;		line 46 in file "microwave_def.c"
  2784 ;; Parameters:    Size  Location     Type
  2785 ;;		None
  2786 ;; Auto vars:     Size  Location     Type
  2787 ;;  key_count       2   19[BANK0 ] int 
  2788 ;;  key             1   21[BANK0 ] unsigned char 
  2789 ;;  field           1   18[BANK0 ] unsigned char 
  2790 ;; Return value:  Size  Location     Type
  2791 ;;                  1    wreg      void 
  2792 ;; Registers used:
  2793 ;;		wreg, fsr0l, fsr0h, status,2, status,0, btemp+1, pclath, cstack
  2794 ;; Tracked objects:
  2795 ;;		On entry : 0/0
  2796 ;;		On exit  : 0/0
  2797 ;;		Unchanged: 0/0
  2798 ;; Data sizes:     COMMON   BANK0   BANK1   BANK3   BANK2
  2799 ;;      Params:         0       0       0       0       0
  2800 ;;      Locals:         0       4       0       0       0
  2801 ;;      Temps:          0       3       0       0       0
  2802 ;;      Totals:         0       7       0       0       0
  2803 ;;Total ram usage:        7 bytes
  2804 ;; Hardware stack levels used: 1
  2805 ;; Hardware stack levels required when called: 5
  2806 ;; This function calls:
  2807 ;;		___bmul
  2808 ;;		___wmul
  2809 ;;		_clcd_print
  2810 ;;		_clcd_putch
  2811 ;;		_clear_display
  2812 ;;		_memset
  2813 ;;		_operation_mode
  2814 ;;		_read_matrix_keypad
  2815 ;; This function is called by:
  2816 ;;		_micro_mode
  2817 ;;		_set_temp
  2818 ;; This function uses a non-reentrant model
  2819 ;;
  2820                           
  2821     0024                     _set_time_screen:	
  2822                           ;psect for function _set_time_screen
  2823                           
  2824     0024                     l2821:	
  2825                           ;incstack = 0
  2826                           ; Regs used in _set_time_screen: [wreg-fsr0h+status,2+status,0+btemp+1+pclath+cstack]
  2827                           
  2828                           
  2829                           ;microwave_def.c: 48:     unsigned char key, field = 's';
  2830     0024  3073               	movlw	115
  2831     0025  1283               	bcf	3,5	;RP0=0, select bank0
  2832     0026  1303               	bcf	3,6	;RP1=0, select bank0
  2833     0027  00B2               	movwf	set_time_screen@field
  2834     0028                     l2823:
  2835                           
  2836                           ;microwave_def.c: 49:     static char blink_timer = 0, blink = 0;;microwave_def.c: 50:  
      +                             int key_count = 3;
  2837     0028  3003               	movlw	3
  2838     0029  00B3               	movwf	set_time_screen@key_count
  2839     002A  3000               	movlw	0
  2840     002B  00B4               	movwf	set_time_screen@key_count+1
  2841     002C                     l2825:
  2842                           
  2843                           ;microwave_def.c: 52:     memset(time_arr, 0, sizeof(time_arr));
  2844     002C  3054               	movlw	(low (_time_arr| 0))& (0+255)
  2845     002D  00F2               	movwf	memset@dest
  2846     002E  3000               	movlw	0
  2847     002F  00F3               	movwf	memset@c
  2848     0030  00F4               	movwf	memset@c+1
  2849     0031  3008               	movlw	8
  2850     0032  00F5               	movwf	memset@n
  2851     0033  3000               	movlw	0
  2852     0034  00F6               	movwf	memset@n+1
  2853     0035  120A  118A  24DE  120A  118A  	fcall	_memset
  2854     003A                     l2827:
  2855                           
  2856                           ;microwave_def.c: 53:     clear_display();
  2857     003A  120A  158A  2518  120A  118A  	fcall	_clear_display
  2858     003F                     l2829:
  2859                           
  2860                           ;microwave_def.c: 54:     clcd_print("SET TIME <MM:SS>", (0x80 + 0));
  2861     003F  3022               	movlw	low (STR_7| (0+32768))
  2862     0040  00F6               	movwf	clcd_print@str
  2863     0041  3085               	movlw	high (STR_7| (0+32768))
  2864     0042  00F7               	movwf	clcd_print@str+1
  2865     0043  3080               	movlw	128
  2866     0044  00F8               	movwf	clcd_print@addr
  2867     0045  120A  158A  25F0  120A  118A  	fcall	_clcd_print
  2868     004A                     l2831:
  2869                           
  2870                           ;microwave_def.c: 55:     clcd_print("TIME : ", (0xC0 + 0));
  2871     004A  30E0               	movlw	low (STR_8| (0+32768))
  2872     004B  00F6               	movwf	clcd_print@str
  2873     004C  3085               	movlw	high (STR_8| (0+32768))
  2874     004D  00F7               	movwf	clcd_print@str+1
  2875     004E  30C0               	movlw	192
  2876     004F  00F8               	movwf	clcd_print@addr
  2877     0050  120A  158A  25F0  120A  118A  	fcall	_clcd_print
  2878     0055                     l2833:
  2879                           
  2880                           ;microwave_def.c: 57:     clcd_putch(':', (0xC0 + 9));
  2881     0055  30C9               	movlw	201
  2882     0056  00F8               	movwf	clcd_putch@addr
  2883     0057  303A               	movlw	58
  2884     0058  120A  158A  2550  120A  118A  	fcall	_clcd_putch
  2885     005D                     l2835:
  2886                           
  2887                           ;microwave_def.c: 58:     clcd_print("*:CLEAR   #ENTER", (0xD0 + 0));
  2888     005D  3033               	movlw	low (STR_9| (0+32768))
  2889     005E  00F6               	movwf	clcd_print@str
  2890     005F  3085               	movlw	high (STR_9| (0+32768))
  2891     0060  00F7               	movwf	clcd_print@str+1
  2892     0061  30D0               	movlw	208
  2893     0062  00F8               	movwf	clcd_print@addr
  2894     0063  120A  158A  25F0  120A  118A  	fcall	_clcd_print
  2895                           
  2896                           ;microwave_def.c: 60:     while (!operation_mode_flag)
  2897     0068  29A4               	goto	l2899
  2898     0069                     l2837:
  2899                           
  2900                           ;microwave_def.c: 61:     {;microwave_def.c: 62:         key = read_matrix_keypad(1);
  2901     0069  3001               	movlw	1
  2902     006A  120A  158A  257B  120A  118A  	fcall	_read_matrix_keypad
  2903     006F  1283               	bcf	3,5	;RP0=0, select bank0
  2904     0070  1303               	bcf	3,6	;RP1=0, select bank0
  2905     0071  00B5               	movwf	set_time_screen@key
  2906     0072                     l2839:
  2907                           
  2908                           ;microwave_def.c: 64:         if (key == '#')
  2909     0072  3023               	movlw	35
  2910     0073  0635               	xorwf	set_time_screen@key,w
  2911     0074  1D03               	btfss	3,2
  2912     0075  2877               	goto	u2641
  2913     0076  2878               	goto	u2640
  2914     0077                     u2641:
  2915     0077  287B               	goto	l2843
  2916     0078                     u2640:
  2917     0078                     l2841:
  2918                           
  2919                           ;microwave_def.c: 65:         {;microwave_def.c: 66:             operation_mode_flag = 1
      +                          ;
  2920     0078  3001               	movlw	1
  2921     0079  00D1               	movwf	_operation_mode_flag
  2922                           
  2923                           ;microwave_def.c: 67:         }
  2924     007A  2931               	goto	l2877
  2925     007B                     l2843:
  2926     007B  302A               	movlw	42
  2927     007C  0635               	xorwf	set_time_screen@key,w
  2928     007D  1D03               	btfss	3,2
  2929     007E  2880               	goto	u2651
  2930     007F  2881               	goto	u2650
  2931     0080                     u2651:
  2932     0080  2896               	goto	l2849
  2933     0081                     u2650:
  2934     0081                     l2845:
  2935                           
  2936                           ;microwave_def.c: 69:         {;microwave_def.c: 70:             memset(time_arr, 0, siz
      +                          eof(time_arr));
  2937     0081  3054               	movlw	(low (_time_arr| 0))& (0+255)
  2938     0082  00F2               	movwf	memset@dest
  2939     0083  3000               	movlw	0
  2940     0084  00F3               	movwf	memset@c
  2941     0085  00F4               	movwf	memset@c+1
  2942     0086  3008               	movlw	8
  2943     0087  00F5               	movwf	memset@n
  2944     0088  3000               	movlw	0
  2945     0089  00F6               	movwf	memset@n+1
  2946     008A  120A  118A  24DE  120A  118A  	fcall	_memset
  2947     008F                     l2847:
  2948                           
  2949                           ;microwave_def.c: 71:             key_count = 3;
  2950     008F  3003               	movlw	3
  2951     0090  1283               	bcf	3,5	;RP0=0, select bank0
  2952     0091  1303               	bcf	3,6	;RP1=0, select bank0
  2953     0092  00B3               	movwf	set_time_screen@key_count
  2954     0093  3000               	movlw	0
  2955     0094  00B4               	movwf	set_time_screen@key_count+1
  2956                           
  2957                           ;microwave_def.c: 72:         }
  2958     0095  2931               	goto	l2877
  2959     0096                     l2849:
  2960     0096  0A35               	incf	set_time_screen@key,w
  2961     0097  1903               	btfsc	3,2
  2962     0098  289A               	goto	u2661
  2963     0099  289B               	goto	u2660
  2964     009A                     u2661:
  2965     009A  2931               	goto	l2877
  2966     009B                     u2660:
  2967     009B                     l2851:
  2968     009B  1BB4               	btfsc	set_time_screen@key_count+1,7
  2969     009C  289E               	goto	u2671
  2970     009D  289F               	goto	u2670
  2971     009E                     u2671:
  2972     009E  2931               	goto	l2877
  2973     009F                     u2670:
  2974     009F                     l2853:
  2975     009F  300A               	movlw	10
  2976     00A0  0235               	subwf	set_time_screen@key,w
  2977     00A1  1803               	skipnc
  2978     00A2  28A4               	goto	u2681
  2979     00A3  28A5               	goto	u2680
  2980     00A4                     u2681:
  2981     00A4  2931               	goto	l2877
  2982     00A5                     u2680:
  2983     00A5                     l2855:
  2984                           
  2985                           ;microwave_def.c: 74:         {;microwave_def.c: 75:             if (key_count > 1)
  2986     00A5  0834               	movf	set_time_screen@key_count+1,w
  2987     00A6  3A80               	xorlw	128
  2988     00A7  00FF               	movwf	btemp+1
  2989     00A8  3080               	movlw	128
  2990     00A9  027F               	subwf	btemp+1,w
  2991     00AA  1D03               	skipz
  2992     00AB  28AE               	goto	u2695
  2993     00AC  3002               	movlw	2
  2994     00AD  0233               	subwf	set_time_screen@key_count,w
  2995     00AE                     u2695:
  2996     00AE  1C03               	skipc
  2997     00AF  28B1               	goto	u2691
  2998     00B0  28B2               	goto	u2690
  2999     00B1                     u2691:
  3000     00B1  291B               	goto	l2873
  3001     00B2                     u2690:
  3002     00B2                     l2857:
  3003                           
  3004                           ;microwave_def.c: 76:             {;microwave_def.c: 77:                 time_arr[2] = t
      +                          ime_arr[3];
  3005     00B2  1283               	bcf	3,5	;RP0=0, select bank0
  3006     00B3  1303               	bcf	3,6	;RP1=0, select bank0
  3007     00B4  085B               	movf	_time_arr+7,w
  3008     00B5  00D9               	movwf	_time_arr+5
  3009     00B6  085A               	movf	_time_arr+6,w
  3010     00B7  00D8               	movwf	_time_arr+4
  3011                           
  3012                           ;microwave_def.c: 78:                 time_arr[3] = key;
  3013     00B8  0835               	movf	set_time_screen@key,w
  3014     00B9  00AF               	movwf	??_set_time_screen
  3015     00BA  01B0               	clrf	??_set_time_screen+1
  3016     00BB  082F               	movf	??_set_time_screen,w
  3017     00BC  00DA               	movwf	_time_arr+6
  3018     00BD  0830               	movf	??_set_time_screen+1,w
  3019     00BE  00DB               	movwf	_time_arr+7
  3020                           
  3021                           ;microwave_def.c: 79:                 key_count--;
  3022     00BF  30FF               	movlw	255
  3023     00C0  07B3               	addwf	set_time_screen@key_count,f
  3024     00C1  1803               	skipnc
  3025     00C2  0AB4               	incf	set_time_screen@key_count+1,f
  3026     00C3  30FF               	movlw	255
  3027     00C4  07B4               	addwf	set_time_screen@key_count+1,f
  3028     00C5                     l2859:
  3029                           
  3030                           ;microwave_def.c: 80:                 field = 's';
  3031     00C5  3073               	movlw	115
  3032     00C6  00B2               	movwf	set_time_screen@field
  3033     00C7                     l2861:
  3034                           
  3035                           ;microwave_def.c: 82:                 if ((time_arr[2] * 10 + time_arr[3]) >= 60)
  3036     00C7  0859               	movf	_time_arr+5,w
  3037     00C8  00F3               	movwf	___wmul@multiplier+1
  3038     00C9  0858               	movf	_time_arr+4,w
  3039     00CA  00F2               	movwf	___wmul@multiplier
  3040     00CB  300A               	movlw	10
  3041     00CC  00F4               	movwf	___wmul@multiplicand
  3042     00CD  3000               	movlw	0
  3043     00CE  00F5               	movwf	___wmul@multiplicand+1
  3044     00CF  120A  158A  259E  120A  118A  	fcall	___wmul
  3045     00D4  1283               	bcf	3,5	;RP0=0, select bank0
  3046     00D5  1303               	bcf	3,6	;RP1=0, select bank0
  3047     00D6  085A               	movf	_time_arr+6,w
  3048     00D7  0772               	addwf	?___wmul,w
  3049     00D8  00AF               	movwf	??_set_time_screen
  3050     00D9  085B               	movf	_time_arr+7,w
  3051     00DA  1803               	skipnc
  3052     00DB  0A5B               	incf	_time_arr+7,w
  3053     00DC  0773               	addwf	?___wmul+1,w
  3054     00DD  00B0               	movwf	??_set_time_screen+1
  3055     00DE  0830               	movf	??_set_time_screen+1,w
  3056     00DF  3A80               	xorlw	128
  3057     00E0  00FF               	movwf	btemp+1
  3058     00E1  3080               	movlw	128
  3059     00E2  027F               	subwf	btemp+1,w
  3060     00E3  1D03               	skipz
  3061     00E4  28E7               	goto	u2705
  3062     00E5  303C               	movlw	60
  3063     00E6  022F               	subwf	??_set_time_screen,w
  3064     00E7                     u2705:
  3065     00E7  1C03               	skipc
  3066     00E8  28EA               	goto	u2701
  3067     00E9  28EB               	goto	u2700
  3068     00EA                     u2701:
  3069     00EA  2931               	goto	l241
  3070     00EB                     u2700:
  3071     00EB                     l2863:
  3072                           
  3073                           ;microwave_def.c: 83:                 {;microwave_def.c: 84:                     time_ar
      +                          r[2] = time_arr[3] = 0;
  3074     00EB  1283               	bcf	3,5	;RP0=0, select bank0
  3075     00EC  1303               	bcf	3,6	;RP1=0, select bank0
  3076     00ED  01DA               	clrf	_time_arr+6
  3077     00EE  01DB               	clrf	_time_arr+7
  3078     00EF  01D8               	clrf	_time_arr+4
  3079     00F0  01D9               	clrf	_time_arr+5
  3080     00F1                     l2865:
  3081                           
  3082                           ;microwave_def.c: 85:                     key_count = 3;
  3083     00F1  3003               	movlw	3
  3084     00F2  00B3               	movwf	set_time_screen@key_count
  3085     00F3  3000               	movlw	0
  3086     00F4  00B4               	movwf	set_time_screen@key_count+1
  3087     00F5                     l2867:
  3088                           
  3089                           ;microwave_def.c: 86:                     clcd_print("SECS Should < 60", (0x90 + 0));
  3090     00F5  3011               	movlw	low (STR_10| (0+32768))
  3091     00F6  00F6               	movwf	clcd_print@str
  3092     00F7  3085               	movlw	high (STR_10| (0+32768))
  3093     00F8  00F7               	movwf	clcd_print@str+1
  3094     00F9  3090               	movlw	144
  3095     00FA  00F8               	movwf	clcd_print@addr
  3096     00FB  120A  158A  25F0  120A  118A  	fcall	_clcd_print
  3097     0100                     l2869:
  3098                           
  3099                           ;microwave_def.c: 87:                     _delay((unsigned long)((1000)*(20000000/4000.0
      +                          )));
  3100     0100  301A               	movlw	26
  3101     0101  1283               	bcf	3,5	;RP0=0, select bank0
  3102     0102  1303               	bcf	3,6	;RP1=0, select bank0
  3103     0103  00B1               	movwf	??_set_time_screen+2
  3104     0104  305E               	movlw	94
  3105     0105  00B0               	movwf	??_set_time_screen+1
  3106     0106  306D               	movlw	109
  3107     0107  00AF               	movwf	??_set_time_screen
  3108     0108                     u3087:
  3109     0108  0BAF               	decfsz	??_set_time_screen,f
  3110     0109  2908               	goto	u3087
  3111     010A  0BB0               	decfsz	??_set_time_screen+1,f
  3112     010B  2908               	goto	u3087
  3113     010C  0BB1               	decfsz	??_set_time_screen+2,f
  3114     010D  2908               	goto	u3087
  3115     010E  290F               	nop2
  3116     010F                     l2871:
  3117                           
  3118                           ;microwave_def.c: 88:                     clcd_print("                ", (0x90 + 0));
  3119     010F  3000               	movlw	low (STR_11| (0+32768))
  3120     0110  00F6               	movwf	clcd_print@str
  3121     0111  3085               	movlw	high (STR_11| (0+32768))
  3122     0112  00F7               	movwf	clcd_print@str+1
  3123     0113  3090               	movlw	144
  3124     0114  00F8               	movwf	clcd_print@addr
  3125     0115  120A  158A  25F0  120A  118A  	fcall	_clcd_print
  3126     011A  2931               	goto	l2877
  3127     011B                     l2873:
  3128                           
  3129                           ;microwave_def.c: 92:             {;microwave_def.c: 93:                 time_arr[0] = t
      +                          ime_arr[1];
  3130     011B  1283               	bcf	3,5	;RP0=0, select bank0
  3131     011C  1303               	bcf	3,6	;RP1=0, select bank0
  3132     011D  0857               	movf	_time_arr+3,w
  3133     011E  00D5               	movwf	_time_arr+1
  3134     011F  0856               	movf	_time_arr+2,w
  3135     0120  00D4               	movwf	_time_arr
  3136                           
  3137                           ;microwave_def.c: 94:                 time_arr[1] = key;
  3138     0121  0835               	movf	set_time_screen@key,w
  3139     0122  00AF               	movwf	??_set_time_screen
  3140     0123  01B0               	clrf	??_set_time_screen+1
  3141     0124  082F               	movf	??_set_time_screen,w
  3142     0125  00D6               	movwf	_time_arr+2
  3143     0126  0830               	movf	??_set_time_screen+1,w
  3144     0127  00D7               	movwf	_time_arr+3
  3145                           
  3146                           ;microwave_def.c: 95:                 key_count--;
  3147     0128  30FF               	movlw	255
  3148     0129  07B3               	addwf	set_time_screen@key_count,f
  3149     012A  1803               	skipnc
  3150     012B  0AB4               	incf	set_time_screen@key_count+1,f
  3151     012C  30FF               	movlw	255
  3152     012D  07B4               	addwf	set_time_screen@key_count+1,f
  3153     012E                     l2875:
  3154                           
  3155                           ;microwave_def.c: 96:                 field = 'm';
  3156     012E  306D               	movlw	109
  3157     012F  00B2               	movwf	set_time_screen@field
  3158     0130  2931               	goto	l2877
  3159     0131                     l241:
  3160     0131                     l2877:
  3161                           
  3162                           ;microwave_def.c: 100:         if (++blink_timer >= 5)
  3163     0131  3001               	movlw	1
  3164     0132  1283               	bcf	3,5	;RP0=0, select bank0
  3165     0133  1303               	bcf	3,6	;RP1=0, select bank0
  3166     0134  07D0               	addwf	set_time_screen@blink_timer,f
  3167     0135  3005               	movlw	5
  3168     0136  0250               	subwf	set_time_screen@blink_timer,w
  3169     0137  1C03               	skipc
  3170     0138  293A               	goto	u2711
  3171     0139  293B               	goto	u2710
  3172     013A                     u2711:
  3173     013A  2944               	goto	l2883
  3174     013B                     u2710:
  3175     013B                     l2879:
  3176                           
  3177                           ;microwave_def.c: 101:         {;microwave_def.c: 102:             blink_timer = 0;
  3178     013B  01D0               	clrf	set_time_screen@blink_timer
  3179     013C                     l2881:
  3180                           
  3181                           ;microwave_def.c: 103:             blink = !blink;
  3182     013C  084F               	movf	set_time_screen@blink,w
  3183     013D  1903               	btfsc	3,2
  3184     013E  2940               	goto	u2721
  3185     013F  2942               	goto	u2720
  3186     0140                     u2721:
  3187     0140  3001               	movlw	1
  3188     0141  2943               	goto	u2730
  3189     0142                     u2720:
  3190     0142  3000               	movlw	0
  3191     0143                     u2730:
  3192     0143  00CF               	movwf	set_time_screen@blink
  3193     0144                     l2883:
  3194                           
  3195                           ;microwave_def.c: 106:         if (field == 'm' && blink)
  3196     0144  306D               	movlw	109
  3197     0145  0632               	xorwf	set_time_screen@field,w
  3198     0146  1D03               	btfss	3,2
  3199     0147  2949               	goto	u2741
  3200     0148  294A               	goto	u2740
  3201     0149                     u2741:
  3202     0149  295B               	goto	l2889
  3203     014A                     u2740:
  3204     014A                     l2885:
  3205     014A  084F               	movf	set_time_screen@blink,w
  3206     014B  1903               	btfsc	3,2
  3207     014C  294E               	goto	u2751
  3208     014D  294F               	goto	u2750
  3209     014E                     u2751:
  3210     014E  295B               	goto	l2889
  3211     014F                     u2750:
  3212     014F                     l2887:
  3213                           
  3214                           ;microwave_def.c: 107:         {;microwave_def.c: 108:             clcd_print("  ", (0xC
      +                          0 + 7));
  3215     014F  300E               	movlw	low ((STR_11+14)| (0+32768))
  3216     0150  00F6               	movwf	clcd_print@str
  3217     0151  3085               	movlw	high ((STR_11+14)| (0+32768))
  3218     0152  00F7               	movwf	clcd_print@str+1
  3219     0153  30C7               	movlw	199
  3220     0154  00F8               	movwf	clcd_print@addr
  3221     0155  120A  158A  25F0  120A  118A  	fcall	_clcd_print
  3222                           
  3223                           ;microwave_def.c: 109:         }
  3224     015A  296F               	goto	l248
  3225     015B                     l2889:
  3226                           
  3227                           ;microwave_def.c: 111:         {;microwave_def.c: 112:             clcd_putch('0' + time
      +                          _arr[0], (0xC0 + 7));
  3228     015B  30C7               	movlw	199
  3229     015C  00F8               	movwf	clcd_putch@addr
  3230     015D  0854               	movf	_time_arr,w
  3231     015E  3E30               	addlw	48
  3232     015F  120A  158A  2550  120A  118A  	fcall	_clcd_putch
  3233                           
  3234                           ;microwave_def.c: 113:             clcd_putch('0' + time_arr[1], (0xC0 + 8));
  3235     0164  30C8               	movlw	200
  3236     0165  00F8               	movwf	clcd_putch@addr
  3237     0166  1283               	bcf	3,5	;RP0=0, select bank0
  3238     0167  1303               	bcf	3,6	;RP1=0, select bank0
  3239     0168  0856               	movf	_time_arr+2,w
  3240     0169  3E30               	addlw	48
  3241     016A  120A  158A  2550  120A  118A  	fcall	_clcd_putch
  3242     016F                     l248:	
  3243                           ;microwave_def.c: 114:         }
  3244                           
  3245                           
  3246                           ;microwave_def.c: 116:         clcd_putch(':', (0xC0 + 9));
  3247     016F  30C9               	movlw	201
  3248     0170  00F8               	movwf	clcd_putch@addr
  3249     0171  303A               	movlw	58
  3250     0172  120A  158A  2550  120A  118A  	fcall	_clcd_putch
  3251     0177                     l2891:
  3252                           
  3253                           ;microwave_def.c: 118:         if (field == 's' && blink)
  3254     0177  3073               	movlw	115
  3255     0178  1283               	bcf	3,5	;RP0=0, select bank0
  3256     0179  1303               	bcf	3,6	;RP1=0, select bank0
  3257     017A  0632               	xorwf	set_time_screen@field,w
  3258     017B  1D03               	btfss	3,2
  3259     017C  297E               	goto	u2761
  3260     017D  297F               	goto	u2760
  3261     017E                     u2761:
  3262     017E  2990               	goto	l2897
  3263     017F                     u2760:
  3264     017F                     l2893:
  3265     017F  084F               	movf	set_time_screen@blink,w
  3266     0180  1903               	btfsc	3,2
  3267     0181  2983               	goto	u2771
  3268     0182  2984               	goto	u2770
  3269     0183                     u2771:
  3270     0183  2990               	goto	l2897
  3271     0184                     u2770:
  3272     0184                     l2895:
  3273                           
  3274                           ;microwave_def.c: 119:         {;microwave_def.c: 120:             clcd_print("  ", (0xC
      +                          0 + 10));
  3275     0184  300E               	movlw	low ((STR_11+14)| (0+32768))
  3276     0185  00F6               	movwf	clcd_print@str
  3277     0186  3085               	movlw	high ((STR_11+14)| (0+32768))
  3278     0187  00F7               	movwf	clcd_print@str+1
  3279     0188  30CA               	movlw	202
  3280     0189  00F8               	movwf	clcd_print@addr
  3281     018A  120A  158A  25F0  120A  118A  	fcall	_clcd_print
  3282                           
  3283                           ;microwave_def.c: 121:         }
  3284     018F  29A4               	goto	l2899
  3285     0190                     l2897:
  3286                           
  3287                           ;microwave_def.c: 123:         {;microwave_def.c: 124:             clcd_putch('0' + time
      +                          _arr[2], (0xC0 + 10));
  3288     0190  30CA               	movlw	202
  3289     0191  00F8               	movwf	clcd_putch@addr
  3290     0192  0858               	movf	_time_arr+4,w
  3291     0193  3E30               	addlw	48
  3292     0194  120A  158A  2550  120A  118A  	fcall	_clcd_putch
  3293                           
  3294                           ;microwave_def.c: 125:             clcd_putch('0' + time_arr[3], (0xC0 + 11));
  3295     0199  30CB               	movlw	203
  3296     019A  00F8               	movwf	clcd_putch@addr
  3297     019B  1283               	bcf	3,5	;RP0=0, select bank0
  3298     019C  1303               	bcf	3,6	;RP1=0, select bank0
  3299     019D  085A               	movf	_time_arr+6,w
  3300     019E  3E30               	addlw	48
  3301     019F  120A  158A  2550  120A  118A  	fcall	_clcd_putch
  3302     01A4                     l2899:
  3303                           
  3304                           ;microwave_def.c: 60:     while (!operation_mode_flag)
  3305     01A4  1283               	bcf	3,5	;RP0=0, select bank0
  3306     01A5  1303               	bcf	3,6	;RP1=0, select bank0
  3307     01A6  0851               	movf	_operation_mode_flag,w
  3308     01A7  1903               	btfsc	3,2
  3309     01A8  29AA               	goto	u2781
  3310     01A9  29AB               	goto	u2780
  3311     01AA                     u2781:
  3312     01AA  2869               	goto	l2837
  3313     01AB                     u2780:
  3314     01AB                     l2901:
  3315                           
  3316                           ;microwave_def.c: 129:     time_count = (time_arr[0] * 10 + time_arr[1]) * 60 + (time_ar
      +                          r[2] * 10 + time_arr[3]);
  3317     01AB  300A               	movlw	10
  3318     01AC  00F2               	movwf	___bmul@multiplicand
  3319     01AD  0858               	movf	_time_arr+4,w
  3320     01AE  120A  158A  2529  120A  118A  	fcall	___bmul
  3321     01B3  1283               	bcf	3,5	;RP0=0, select bank0
  3322     01B4  1303               	bcf	3,6	;RP1=0, select bank0
  3323     01B5  00AF               	movwf	??_set_time_screen
  3324     01B6  303C               	movlw	60
  3325     01B7  00F2               	movwf	___bmul@multiplicand
  3326     01B8  0856               	movf	_time_arr+2,w
  3327     01B9  120A  158A  2529  120A  118A  	fcall	___bmul
  3328     01BE  1283               	bcf	3,5	;RP0=0, select bank0
  3329     01BF  1303               	bcf	3,6	;RP1=0, select bank0
  3330     01C0  00B0               	movwf	??_set_time_screen+1
  3331     01C1  3058               	movlw	88
  3332     01C2  00F2               	movwf	___bmul@multiplicand
  3333     01C3  0854               	movf	_time_arr,w
  3334     01C4  120A  158A  2529  120A  118A  	fcall	___bmul
  3335     01C9  1283               	bcf	3,5	;RP0=0, select bank0
  3336     01CA  1303               	bcf	3,6	;RP1=0, select bank0
  3337     01CB  0730               	addwf	??_set_time_screen+1,w
  3338     01CC  072F               	addwf	??_set_time_screen,w
  3339     01CD  075A               	addwf	_time_arr+6,w
  3340     01CE  00D3               	movwf	_time_count
  3341     01CF                     l2903:
  3342                           
  3343                           ;microwave_def.c: 130:     operation_mode_flag = 0;
  3344     01CF  01D1               	clrf	_operation_mode_flag
  3345     01D0                     l2905:
  3346                           
  3347                           ;microwave_def.c: 131:     operation_mode();
  3348     01D0  120A  118A  21D6  120A  118A  	fcall	_operation_mode
  3349     01D5                     l252:
  3350     01D5  0008               	return
  3351     01D6                     __end_of_set_time_screen:
  3352                           
  3353                           	psect	text11
  3354     01D6                     __ptext11:	
  3355 ;; *************** function _operation_mode *****************
  3356 ;; Defined at:
  3357 ;;		line 134 in file "microwave_def.c"
  3358 ;; Parameters:    Size  Location     Type
  3359 ;;		None
  3360 ;; Auto vars:     Size  Location     Type
  3361 ;;  seconds         2   11[BANK0 ] unsigned int 
  3362 ;;  minutes         2    9[BANK0 ] unsigned int 
  3363 ;;  key             1   14[BANK0 ] unsigned char 
  3364 ;;  pause_flag      1   13[BANK0 ] unsigned char 
  3365 ;;  menu_flag       1    8[BANK0 ] unsigned char 
  3366 ;; Return value:  Size  Location     Type
  3367 ;;                  1    wreg      void 
  3368 ;; Registers used:
  3369 ;;		wreg, fsr0l, fsr0h, status,2, status,0, btemp+1, pclath, cstack
  3370 ;; Tracked objects:
  3371 ;;		On entry : 0/0
  3372 ;;		On exit  : 0/0
  3373 ;;		Unchanged: 0/0
  3374 ;; Data sizes:     COMMON   BANK0   BANK1   BANK3   BANK2
  3375 ;;      Params:         0       0       0       0       0
  3376 ;;      Locals:         0       7       0       0       0
  3377 ;;      Temps:          0       3       0       0       0
  3378 ;;      Totals:         0      10       0       0       0
  3379 ;;Total ram usage:       10 bytes
  3380 ;; Hardware stack levels used: 1
  3381 ;; Hardware stack levels required when called: 4
  3382 ;; This function calls:
  3383 ;;		___awdiv
  3384 ;;		___awmod
  3385 ;;		___lwdiv
  3386 ;;		___lwmod
  3387 ;;		_clcd_print
  3388 ;;		_clcd_putch
  3389 ;;		_clear_display
  3390 ;;		_menu_screen
  3391 ;;		_read_matrix_keypad
  3392 ;; This function is called by:
  3393 ;;		_set_time_screen
  3394 ;;		_start_mode_screen
  3395 ;; This function uses a non-reentrant model
  3396 ;;
  3397                           
  3398     01D6                     _operation_mode:	
  3399                           ;psect for function _operation_mode
  3400                           
  3401     01D6                     l2739:	
  3402                           ;incstack = 0
  3403                           ; Regs used in _operation_mode: [wreg-fsr0h+status,2+status,0+btemp+1+pclath+cstack]
  3404                           
  3405                           
  3406                           ;microwave_def.c: 136:     unsigned char key, pause_flag = 0, menu_flag = 0;
  3407     01D6  1283               	bcf	3,5	;RP0=0, select bank0
  3408     01D7  1303               	bcf	3,6	;RP1=0, select bank0
  3409     01D8  01AD               	clrf	operation_mode@pause_flag
  3410     01D9  01A8               	clrf	operation_mode@menu_flag
  3411     01DA                     l2741:
  3412                           
  3413                           ;microwave_def.c: 138:     clear_display();
  3414     01DA  120A  158A  2518  120A  118A  	fcall	_clear_display
  3415     01DF                     l2743:
  3416                           
  3417                           ;microwave_def.c: 139:     TMR2ON = 1;
  3418     01DF  1283               	bcf	3,5	;RP0=0, select bank0
  3419     01E0  1303               	bcf	3,6	;RP1=0, select bank0
  3420     01E1  1512               	bsf	18,2	;volatile
  3421     01E2                     l2745:
  3422                           
  3423                           ;microwave_def.c: 140:     clcd_print("TIME = ", (0x80 + 0));
  3424     01E2  30E8               	movlw	low (STR_14| (0+32768))
  3425     01E3  00F6               	movwf	clcd_print@str
  3426     01E4  3085               	movlw	high (STR_14| (0+32768))
  3427     01E5  00F7               	movwf	clcd_print@str+1
  3428     01E6  3080               	movlw	128
  3429     01E7  00F8               	movwf	clcd_print@addr
  3430     01E8  120A  158A  25F0  120A  118A  	fcall	_clcd_print
  3431                           
  3432                           ;microwave_def.c: 142:     while (time_count > 0)
  3433     01ED  2AF0               	goto	l2777
  3434     01EE                     l2747:
  3435                           
  3436                           ;microwave_def.c: 143:     {;microwave_def.c: 144:         unsigned int minutes = time_c
      +                          ount / 60;
  3437     01EE  303C               	movlw	60
  3438     01EF  00F2               	movwf	___awdiv@divisor
  3439     01F0  3000               	movlw	0
  3440     01F1  00F3               	movwf	___awdiv@divisor+1
  3441     01F2  0853               	movf	_time_count,w
  3442     01F3  00A5               	movwf	??_operation_mode
  3443     01F4  01A6               	clrf	??_operation_mode+1
  3444     01F5  0825               	movf	??_operation_mode,w
  3445     01F6  00F4               	movwf	___awdiv@dividend
  3446     01F7  0826               	movf	??_operation_mode+1,w
  3447     01F8  00F5               	movwf	___awdiv@dividend+1
  3448     01F9  120A  118A  2479  120A  118A  	fcall	___awdiv
  3449     01FE  0873               	movf	?___awdiv+1,w
  3450     01FF  1283               	bcf	3,5	;RP0=0, select bank0
  3451     0200  1303               	bcf	3,6	;RP1=0, select bank0
  3452     0201  00AA               	movwf	operation_mode@minutes+1
  3453     0202  0872               	movf	?___awdiv,w
  3454     0203  00A9               	movwf	operation_mode@minutes
  3455                           
  3456                           ;microwave_def.c: 145:         unsigned int seconds = time_count % 60;
  3457     0204  303C               	movlw	60
  3458     0205  00F2               	movwf	___awmod@divisor
  3459     0206  3000               	movlw	0
  3460     0207  00F3               	movwf	___awmod@divisor+1
  3461     0208  0853               	movf	_time_count,w
  3462     0209  00A5               	movwf	??_operation_mode
  3463     020A  01A6               	clrf	??_operation_mode+1
  3464     020B  0825               	movf	??_operation_mode,w
  3465     020C  00F4               	movwf	___awmod@dividend
  3466     020D  0826               	movf	??_operation_mode+1,w
  3467     020E  00F5               	movwf	___awmod@dividend+1
  3468     020F  120A  158A  2746  120A  118A  	fcall	___awmod
  3469     0214  0873               	movf	?___awmod+1,w
  3470     0215  1283               	bcf	3,5	;RP0=0, select bank0
  3471     0216  1303               	bcf	3,6	;RP1=0, select bank0
  3472     0217  00AC               	movwf	operation_mode@seconds+1
  3473     0218  0872               	movf	?___awmod,w
  3474     0219  00AB               	movwf	operation_mode@seconds
  3475                           
  3476                           ;microwave_def.c: 147:         time_arr[0] = minutes / 10;
  3477     021A  300A               	movlw	10
  3478     021B  00F2               	movwf	___lwdiv@divisor
  3479     021C  3000               	movlw	0
  3480     021D  00F3               	movwf	___lwdiv@divisor+1
  3481     021E  082A               	movf	operation_mode@minutes+1,w
  3482     021F  00F5               	movwf	___lwdiv@dividend+1
  3483     0220  0829               	movf	operation_mode@minutes,w
  3484     0221  00F4               	movwf	___lwdiv@dividend
  3485     0222  120A  158A  26C2  120A  118A  	fcall	___lwdiv
  3486     0227  0873               	movf	?___lwdiv+1,w
  3487     0228  1283               	bcf	3,5	;RP0=0, select bank0
  3488     0229  1303               	bcf	3,6	;RP1=0, select bank0
  3489     022A  00D5               	movwf	_time_arr+1
  3490     022B  0872               	movf	?___lwdiv,w
  3491     022C  00D4               	movwf	_time_arr
  3492                           
  3493                           ;microwave_def.c: 148:         time_arr[1] = minutes % 10;
  3494     022D  300A               	movlw	10
  3495     022E  00F2               	movwf	___lwmod@divisor
  3496     022F  3000               	movlw	0
  3497     0230  00F3               	movwf	___lwmod@divisor+1
  3498     0231  082A               	movf	operation_mode@minutes+1,w
  3499     0232  00F5               	movwf	___lwmod@dividend+1
  3500     0233  0829               	movf	operation_mode@minutes,w
  3501     0234  00F4               	movwf	___lwmod@dividend
  3502     0235  120A  158A  268A  120A  118A  	fcall	___lwmod
  3503     023A  0873               	movf	?___lwmod+1,w
  3504     023B  1283               	bcf	3,5	;RP0=0, select bank0
  3505     023C  1303               	bcf	3,6	;RP1=0, select bank0
  3506     023D  00D7               	movwf	_time_arr+3
  3507     023E  0872               	movf	?___lwmod,w
  3508     023F  00D6               	movwf	_time_arr+2
  3509                           
  3510                           ;microwave_def.c: 149:         time_arr[2] = seconds / 10;
  3511     0240  300A               	movlw	10
  3512     0241  00F2               	movwf	___lwdiv@divisor
  3513     0242  3000               	movlw	0
  3514     0243  00F3               	movwf	___lwdiv@divisor+1
  3515     0244  082C               	movf	operation_mode@seconds+1,w
  3516     0245  00F5               	movwf	___lwdiv@dividend+1
  3517     0246  082B               	movf	operation_mode@seconds,w
  3518     0247  00F4               	movwf	___lwdiv@dividend
  3519     0248  120A  158A  26C2  120A  118A  	fcall	___lwdiv
  3520     024D  0873               	movf	?___lwdiv+1,w
  3521     024E  1283               	bcf	3,5	;RP0=0, select bank0
  3522     024F  1303               	bcf	3,6	;RP1=0, select bank0
  3523     0250  00D9               	movwf	_time_arr+5
  3524     0251  0872               	movf	?___lwdiv,w
  3525     0252  00D8               	movwf	_time_arr+4
  3526                           
  3527                           ;microwave_def.c: 150:         time_arr[3] = seconds % 10;
  3528     0253  300A               	movlw	10
  3529     0254  00F2               	movwf	___lwmod@divisor
  3530     0255  3000               	movlw	0
  3531     0256  00F3               	movwf	___lwmod@divisor+1
  3532     0257  082C               	movf	operation_mode@seconds+1,w
  3533     0258  00F5               	movwf	___lwmod@dividend+1
  3534     0259  082B               	movf	operation_mode@seconds,w
  3535     025A  00F4               	movwf	___lwmod@dividend
  3536     025B  120A  158A  268A  120A  118A  	fcall	___lwmod
  3537     0260  0873               	movf	?___lwmod+1,w
  3538     0261  1283               	bcf	3,5	;RP0=0, select bank0
  3539     0262  1303               	bcf	3,6	;RP1=0, select bank0
  3540     0263  00DB               	movwf	_time_arr+7
  3541     0264  0872               	movf	?___lwmod,w
  3542     0265  00DA               	movwf	_time_arr+6
  3543                           
  3544                           ;microwave_def.c: 152:         clcd_putch('0' + time_arr[0], (0x80 + 7));
  3545     0266  3087               	movlw	135
  3546     0267  00F8               	movwf	clcd_putch@addr
  3547     0268  0854               	movf	_time_arr,w
  3548     0269  3E30               	addlw	48
  3549     026A  120A  158A  2550  120A  118A  	fcall	_clcd_putch
  3550                           
  3551                           ;microwave_def.c: 153:         clcd_putch('0' + time_arr[1], (0x80 + 8));
  3552     026F  3088               	movlw	136
  3553     0270  00F8               	movwf	clcd_putch@addr
  3554     0271  1283               	bcf	3,5	;RP0=0, select bank0
  3555     0272  1303               	bcf	3,6	;RP1=0, select bank0
  3556     0273  0856               	movf	_time_arr+2,w
  3557     0274  3E30               	addlw	48
  3558     0275  120A  158A  2550  120A  118A  	fcall	_clcd_putch
  3559                           
  3560                           ;microwave_def.c: 154:         clcd_putch(':', (0x80 + 9));
  3561     027A  3089               	movlw	137
  3562     027B  00F8               	movwf	clcd_putch@addr
  3563     027C  303A               	movlw	58
  3564     027D  120A  158A  2550  120A  118A  	fcall	_clcd_putch
  3565                           
  3566                           ;microwave_def.c: 155:         clcd_putch('0' + time_arr[2], (0x80 + 10));
  3567     0282  308A               	movlw	138
  3568     0283  00F8               	movwf	clcd_putch@addr
  3569     0284  1283               	bcf	3,5	;RP0=0, select bank0
  3570     0285  1303               	bcf	3,6	;RP1=0, select bank0
  3571     0286  0858               	movf	_time_arr+4,w
  3572     0287  3E30               	addlw	48
  3573     0288  120A  158A  2550  120A  118A  	fcall	_clcd_putch
  3574                           
  3575                           ;microwave_def.c: 156:         clcd_putch('0' + time_arr[3], (0x80 + 11));
  3576     028D  308B               	movlw	139
  3577     028E  00F8               	movwf	clcd_putch@addr
  3578     028F  1283               	bcf	3,5	;RP0=0, select bank0
  3579     0290  1303               	bcf	3,6	;RP1=0, select bank0
  3580     0291  085A               	movf	_time_arr+6,w
  3581     0292  3E30               	addlw	48
  3582     0293  120A  158A  2550  120A  118A  	fcall	_clcd_putch
  3583     0298                     l2749:
  3584                           
  3585                           ;microwave_def.c: 158:         clcd_print("4.RES", (0xC0 + 0));
  3586     0298  3004               	movlw	low (STR_15| (0+32768))
  3587     0299  00F6               	movwf	clcd_print@str
  3588     029A  3086               	movlw	high (STR_15| (0+32768))
  3589     029B  00F7               	movwf	clcd_print@str+1
  3590     029C  30C0               	movlw	192
  3591     029D  00F8               	movwf	clcd_print@addr
  3592     029E  120A  158A  25F0  120A  118A  	fcall	_clcd_print
  3593     02A3                     l2751:
  3594                           
  3595                           ;microwave_def.c: 159:         clcd_print("5.PAS", (0xC0 + 6));
  3596     02A3  30F8               	movlw	low (STR_16| (0+32768))
  3597     02A4  00F6               	movwf	clcd_print@str
  3598     02A5  3085               	movlw	high (STR_16| (0+32768))
  3599     02A6  00F7               	movwf	clcd_print@str+1
  3600     02A7  30C6               	movlw	198
  3601     02A8  00F8               	movwf	clcd_print@addr
  3602     02A9  120A  158A  25F0  120A  118A  	fcall	_clcd_print
  3603     02AE                     l2753:
  3604                           
  3605                           ;microwave_def.c: 160:         clcd_print("6.SP", (0xC0 + 12));
  3606     02AE  300A               	movlw	low (STR_17| (0+32768))
  3607     02AF  00F6               	movwf	clcd_print@str
  3608     02B0  3086               	movlw	high (STR_17| (0+32768))
  3609     02B1  00F7               	movwf	clcd_print@str+1
  3610     02B2  30CC               	movlw	204
  3611     02B3  00F8               	movwf	clcd_print@addr
  3612     02B4  120A  158A  25F0  120A  118A  	fcall	_clcd_print
  3613     02B9                     l2755:
  3614                           
  3615                           ;microwave_def.c: 162:         if (!pause_flag) RC2 = 1;
  3616     02B9  1283               	bcf	3,5	;RP0=0, select bank0
  3617     02BA  1303               	bcf	3,6	;RP1=0, select bank0
  3618     02BB  082D               	movf	operation_mode@pause_flag,w
  3619     02BC  1D03               	btfss	3,2
  3620     02BD  2ABF               	goto	u2571
  3621     02BE  2AC0               	goto	u2570
  3622     02BF                     u2571:
  3623     02BF  2AC1               	goto	l2759
  3624     02C0                     u2570:
  3625     02C0                     l2757:
  3626     02C0  1507               	bsf	7,2	;volatile
  3627     02C1                     l2759:
  3628                           
  3629                           ;microwave_def.c: 164:         key = read_matrix_keypad(1);
  3630     02C1  3001               	movlw	1
  3631     02C2  120A  158A  257B  120A  118A  	fcall	_read_matrix_keypad
  3632     02C7  1283               	bcf	3,5	;RP0=0, select bank0
  3633     02C8  1303               	bcf	3,6	;RP1=0, select bank0
  3634     02C9  00AE               	movwf	operation_mode@key
  3635     02CA                     l2761:
  3636                           
  3637                           ;microwave_def.c: 166:         if (key == 4)
  3638     02CA  3004               	movlw	4
  3639     02CB  062E               	xorwf	operation_mode@key,w
  3640     02CC  1D03               	btfss	3,2
  3641     02CD  2ACF               	goto	u2581
  3642     02CE  2AD0               	goto	u2580
  3643     02CF                     u2581:
  3644     02CF  2ADC               	goto	l2769
  3645     02D0                     u2580:
  3646     02D0                     l2763:
  3647                           
  3648                           ;microwave_def.c: 167:         {;microwave_def.c: 168:             if (!pause_flag)
  3649     02D0  082D               	movf	operation_mode@pause_flag,w
  3650     02D1  1D03               	btfss	3,2
  3651     02D2  2AD4               	goto	u2591
  3652     02D3  2AD5               	goto	u2590
  3653     02D4                     u2591:
  3654     02D4  2AD8               	goto	l259
  3655     02D5                     u2590:
  3656     02D5                     l2765:
  3657                           
  3658                           ;microwave_def.c: 169:                 time_count += 30;
  3659     02D5  301E               	movlw	30
  3660     02D6  07D3               	addwf	_time_count,f
  3661     02D7  2AF0               	goto	l2777
  3662     02D8                     l259:	
  3663                           ;microwave_def.c: 170:             else
  3664                           
  3665                           
  3666                           ;microwave_def.c: 171:             {;microwave_def.c: 172:                 TMR2ON = 1;
  3667     02D8  1512               	bsf	18,2	;volatile
  3668                           
  3669                           ;microwave_def.c: 173:                 RC2 = 1;
  3670     02D9  1507               	bsf	7,2	;volatile
  3671     02DA                     l2767:
  3672                           
  3673                           ;microwave_def.c: 174:                 pause_flag = 0;
  3674     02DA  01AD               	clrf	operation_mode@pause_flag
  3675     02DB  2AF0               	goto	l2777
  3676     02DC                     l2769:
  3677     02DC  3005               	movlw	5
  3678     02DD  062E               	xorwf	operation_mode@key,w
  3679     02DE  1D03               	btfss	3,2
  3680     02DF  2AE1               	goto	u2601
  3681     02E0  2AE2               	goto	u2600
  3682     02E1                     u2601:
  3683     02E1  2AE7               	goto	l2773
  3684     02E2                     u2600:
  3685     02E2                     l2771:
  3686                           
  3687                           ;microwave_def.c: 178:         {;microwave_def.c: 179:             TMR2ON = 0;
  3688     02E2  1112               	bcf	18,2	;volatile
  3689                           
  3690                           ;microwave_def.c: 180:             RC2 = 0;
  3691     02E3  1107               	bcf	7,2	;volatile
  3692                           
  3693                           ;microwave_def.c: 181:             pause_flag = 1;
  3694     02E4  3001               	movlw	1
  3695     02E5  00AD               	movwf	operation_mode@pause_flag
  3696                           
  3697                           ;microwave_def.c: 182:         }
  3698     02E6  2AF0               	goto	l2777
  3699     02E7                     l2773:
  3700     02E7  3006               	movlw	6
  3701     02E8  062E               	xorwf	operation_mode@key,w
  3702     02E9  1D03               	btfss	3,2
  3703     02EA  2AEC               	goto	u2611
  3704     02EB  2AED               	goto	u2610
  3705     02EC                     u2611:
  3706     02EC  2AF0               	goto	l261
  3707     02ED                     u2610:
  3708     02ED                     l2775:
  3709                           
  3710                           ;microwave_def.c: 184:         {;microwave_def.c: 185:             menu_flag = 1;
  3711     02ED  3001               	movlw	1
  3712     02EE  00A8               	movwf	operation_mode@menu_flag
  3713                           
  3714                           ;microwave_def.c: 186:             break;
  3715     02EF  2AF7               	goto	l265
  3716     02F0                     l261:
  3717     02F0                     l2777:
  3718                           
  3719                           ;microwave_def.c: 142:     while (time_count > 0)
  3720     02F0  1283               	bcf	3,5	;RP0=0, select bank0
  3721     02F1  1303               	bcf	3,6	;RP1=0, select bank0
  3722     02F2  0853               	movf	_time_count,w
  3723     02F3  1D03               	btfss	3,2
  3724     02F4  2AF6               	goto	u2621
  3725     02F5  2AF7               	goto	u2620
  3726     02F6                     u2621:
  3727     02F6  29EE               	goto	l2747
  3728     02F7                     u2620:
  3729     02F7                     l265:
  3730                           
  3731                           ;microwave_def.c: 190:     RC2 = 0;
  3732     02F7  1107               	bcf	7,2	;volatile
  3733     02F8                     l2779:
  3734                           
  3735                           ;microwave_def.c: 192:     if (!menu_flag)
  3736     02F8  0828               	movf	operation_mode@menu_flag,w
  3737     02F9  1D03               	btfss	3,2
  3738     02FA  2AFC               	goto	u2631
  3739     02FB  2AFD               	goto	u2630
  3740     02FC                     u2631:
  3741     02FC  2B2D               	goto	l2793
  3742     02FD                     u2630:
  3743     02FD                     l2781:
  3744                           
  3745                           ;microwave_def.c: 193:     {;microwave_def.c: 194:         clear_display();
  3746     02FD  120A  158A  2518  120A  118A  	fcall	_clear_display
  3747     0302                     l2783:
  3748                           
  3749                           ;microwave_def.c: 195:         clcd_print("TIME UP !!!", (0xC0 + 3));
  3750     0302  30BC               	movlw	low (STR_18| (0+32768))
  3751     0303  00F6               	movwf	clcd_print@str
  3752     0304  3085               	movlw	high (STR_18| (0+32768))
  3753     0305  00F7               	movwf	clcd_print@str+1
  3754     0306  30C3               	movlw	195
  3755     0307  00F8               	movwf	clcd_print@addr
  3756     0308  120A  158A  25F0  120A  118A  	fcall	_clcd_print
  3757     030D                     l2785:
  3758                           
  3759                           ;microwave_def.c: 196:         clcd_print(" Enjoy your meal", (0x90 + 0));
  3760     030D  3055               	movlw	low (STR_19| (0+32768))
  3761     030E  00F6               	movwf	clcd_print@str
  3762     030F  3085               	movlw	high (STR_19| (0+32768))
  3763     0310  00F7               	movwf	clcd_print@str+1
  3764     0311  3090               	movlw	144
  3765     0312  00F8               	movwf	clcd_print@addr
  3766     0313  120A  158A  25F0  120A  118A  	fcall	_clcd_print
  3767     0318                     l2787:
  3768                           
  3769                           ;microwave_def.c: 197:         RC1 = 1;
  3770     0318  1283               	bcf	3,5	;RP0=0, select bank0
  3771     0319  1303               	bcf	3,6	;RP1=0, select bank0
  3772     031A  1487               	bsf	7,1	;volatile
  3773     031B                     l2789:
  3774                           
  3775                           ;microwave_def.c: 198:         _delay((unsigned long)((500)*(20000000/4000.0)));
  3776     031B  300D               	movlw	13
  3777     031C  1283               	bcf	3,5	;RP0=0, select bank0
  3778     031D  1303               	bcf	3,6	;RP1=0, select bank0
  3779     031E  00A7               	movwf	??_operation_mode+2
  3780     031F  30AF               	movlw	175
  3781     0320  00A6               	movwf	??_operation_mode+1
  3782     0321  30B5               	movlw	181
  3783     0322  00A5               	movwf	??_operation_mode
  3784     0323                     u3097:
  3785     0323  0BA5               	decfsz	??_operation_mode,f
  3786     0324  2B23               	goto	u3097
  3787     0325  0BA6               	decfsz	??_operation_mode+1,f
  3788     0326  2B23               	goto	u3097
  3789     0327  0BA7               	decfsz	??_operation_mode+2,f
  3790     0328  2B23               	goto	u3097
  3791     0329  2B2A               	nop2
  3792     032A                     l2791:
  3793                           
  3794                           ;microwave_def.c: 199:         RC1 = 0;
  3795     032A  1283               	bcf	3,5	;RP0=0, select bank0
  3796     032B  1303               	bcf	3,6	;RP1=0, select bank0
  3797     032C  1087               	bcf	7,1	;volatile
  3798     032D                     l2793:
  3799                           
  3800                           ;microwave_def.c: 202:     clear_display();
  3801     032D  120A  158A  2518  120A  118A  	fcall	_clear_display
  3802     0332                     l2795:
  3803                           
  3804                           ;microwave_def.c: 203:     menu_screen(0x20);
  3805     0332  3020               	movlw	32
  3806     0333  120A  158A  2704  120A  118A  	fcall	_menu_screen
  3807     0338                     l267:
  3808     0338  0008               	return
  3809     0339                     __end_of_operation_mode:
  3810                           
  3811                           	psect	text12
  3812     0D7B                     __ptext12:	
  3813 ;; *************** function _read_matrix_keypad *****************
  3814 ;; Defined at:
  3815 ;;		line 111 in file "matrix_keypad.c"
  3816 ;; Parameters:    Size  Location     Type
  3817 ;;  mode            1    wreg     unsigned char 
  3818 ;; Auto vars:     Size  Location     Type
  3819 ;;  mode            1    4[COMMON] unsigned char 
  3820 ;;  key             1    5[COMMON] unsigned char 
  3821 ;; Return value:  Size  Location     Type
  3822 ;;                  1    wreg      unsigned char 
  3823 ;; Registers used:
  3824 ;;		wreg, status,2, status,0, pclath, cstack
  3825 ;; Tracked objects:
  3826 ;;		On entry : 0/0
  3827 ;;		On exit  : 0/0
  3828 ;;		Unchanged: 0/0
  3829 ;; Data sizes:     COMMON   BANK0   BANK1   BANK3   BANK2
  3830 ;;      Params:         0       0       0       0       0
  3831 ;;      Locals:         2       0       0       0       0
  3832 ;;      Temps:          0       0       0       0       0
  3833 ;;      Totals:         2       0       0       0       0
  3834 ;;Total ram usage:        2 bytes
  3835 ;; Hardware stack levels used: 1
  3836 ;; Hardware stack levels required when called: 2
  3837 ;; This function calls:
  3838 ;;		_scan_keypad
  3839 ;; This function is called by:
  3840 ;;		_main
  3841 ;;		_set_time_screen
  3842 ;;		_operation_mode
  3843 ;;		_set_temp
  3844 ;; This function uses a non-reentrant model
  3845 ;;
  3846                           
  3847     0D7B                     _read_matrix_keypad:	
  3848                           ;psect for function _read_matrix_keypad
  3849                           
  3850                           
  3851                           ;incstack = 0
  3852                           ; Regs used in _read_matrix_keypad: [wreg+status,2+status,0+pclath+cstack]
  3853                           ;read_matrix_keypad@mode stored from wreg
  3854     0D7B  00F4               	movwf	read_matrix_keypad@mode
  3855     0D7C                     l1631:
  3856                           
  3857                           ;matrix_keypad.c: 111: unsigned char read_matrix_keypad(unsigned char mode);matrix_keypa
      +                          d.c: 112: {;matrix_keypad.c: 113:     static unsigned char once = 1;;matrix_keypad.c: 11
      +                          4:     unsigned char key;;matrix_keypad.c: 116:     key = scan_keypad();
  3858     0D7C  120A  118A  26D9  120A  158A  	fcall	_scan_keypad
  3859     0D81  00F5               	movwf	read_matrix_keypad@key
  3860     0D82                     l1633:
  3861                           
  3862                           ;matrix_keypad.c: 118:     if (mode == 0)
  3863     0D82  0874               	movf	read_matrix_keypad@mode,w
  3864     0D83  1D03               	btfss	3,2
  3865     0D84  2D86               	goto	u1071
  3866     0D85  2D87               	goto	u1070
  3867     0D86                     u1071:
  3868     0D86  2D89               	goto	l1641
  3869     0D87                     u1070:
  3870     0D87                     l1635:
  3871                           
  3872                           ;matrix_keypad.c: 119:     {;matrix_keypad.c: 120:         return key;
  3873     0D87  0875               	movf	read_matrix_keypad@key,w
  3874     0D88  2D9D               	goto	l174
  3875     0D89                     l1641:
  3876                           
  3877                           ;matrix_keypad.c: 123:     {;matrix_keypad.c: 124:         if ((key != 0xFF) && once)
  3878     0D89  0A75               	incf	read_matrix_keypad@key,w
  3879     0D8A  1903               	btfsc	3,2
  3880     0D8B  2D8D               	goto	u1081
  3881     0D8C  2D8E               	goto	u1080
  3882     0D8D                     u1081:
  3883     0D8D  2D95               	goto	l1653
  3884     0D8E                     u1080:
  3885     0D8E                     l1643:
  3886     0D8E  087B               	movf	read_matrix_keypad@once,w
  3887     0D8F  1903               	btfsc	3,2
  3888     0D90  2D92               	goto	u1091
  3889     0D91  2D93               	goto	u1090
  3890     0D92                     u1091:
  3891     0D92  2D95               	goto	l1653
  3892     0D93                     u1090:
  3893     0D93                     l1645:
  3894                           
  3895                           ;matrix_keypad.c: 125:         {;matrix_keypad.c: 126:             once = 0;
  3896     0D93  01FB               	clrf	read_matrix_keypad@once
  3897     0D94  2D87               	goto	l1635
  3898     0D95                     l1653:
  3899     0D95  0A75               	incf	read_matrix_keypad@key,w
  3900     0D96  1D03               	btfss	3,2
  3901     0D97  2D99               	goto	u1101
  3902     0D98  2D9A               	goto	u1100
  3903     0D99                     u1101:
  3904     0D99  2D9C               	goto	l1657
  3905     0D9A                     u1100:
  3906     0D9A                     l1655:
  3907                           
  3908                           ;matrix_keypad.c: 131:         {;matrix_keypad.c: 132:             once = 1;
  3909     0D9A  3001               	movlw	1
  3910     0D9B  00FB               	movwf	read_matrix_keypad@once
  3911     0D9C                     l1657:
  3912                           
  3913                           ;matrix_keypad.c: 136:     return 0xFF;
  3914     0D9C  30FF               	movlw	255
  3915     0D9D                     l174:
  3916     0D9D  0008               	return
  3917     0D9E                     __end_of_read_matrix_keypad:
  3918                           
  3919                           	psect	text13
  3920     06D9                     __ptext13:	
  3921 ;; *************** function _scan_keypad *****************
  3922 ;; Defined at:
  3923 ;;		line 24 in file "matrix_keypad.c"
  3924 ;; Parameters:    Size  Location     Type
  3925 ;;		None
  3926 ;; Auto vars:     Size  Location     Type
  3927 ;;  i               2    2[COMMON] int 
  3928 ;; Return value:  Size  Location     Type
  3929 ;;                  1    wreg      unsigned char 
  3930 ;; Registers used:
  3931 ;;		wreg, status,2, status,0
  3932 ;; Tracked objects:
  3933 ;;		On entry : 0/0
  3934 ;;		On exit  : 0/0
  3935 ;;		Unchanged: 0/0
  3936 ;; Data sizes:     COMMON   BANK0   BANK1   BANK3   BANK2
  3937 ;;      Params:         0       0       0       0       0
  3938 ;;      Locals:         2       0       0       0       0
  3939 ;;      Temps:          0       0       0       0       0
  3940 ;;      Totals:         2       0       0       0       0
  3941 ;;Total ram usage:        2 bytes
  3942 ;; Hardware stack levels used: 1
  3943 ;; Hardware stack levels required when called: 1
  3944 ;; This function calls:
  3945 ;;		Nothing
  3946 ;; This function is called by:
  3947 ;;		_read_matrix_keypad
  3948 ;; This function uses a non-reentrant model
  3949 ;;
  3950                           
  3951     06D9                     _scan_keypad:	
  3952                           ;psect for function _scan_keypad
  3953                           
  3954     06D9                     l1539:	
  3955                           ;incstack = 0
  3956                           ; Regs used in _scan_keypad: [wreg+status,2+status,0]
  3957                           
  3958                           
  3959                           ;matrix_keypad.c: 26:     int i;;matrix_keypad.c: 28:     RD3 = 0;
  3960     06D9  1283               	bcf	3,5	;RP0=0, select bank0
  3961     06DA  1303               	bcf	3,6	;RP1=0, select bank0
  3962     06DB  1188               	bcf	8,3	;volatile
  3963                           
  3964                           ;matrix_keypad.c: 29:     RD2 = 1;
  3965     06DC  1508               	bsf	8,2	;volatile
  3966                           
  3967                           ;matrix_keypad.c: 30:     RD1 = 1;
  3968     06DD  1488               	bsf	8,1	;volatile
  3969                           
  3970                           ;matrix_keypad.c: 31:     RD0 = 1;
  3971     06DE  1408               	bsf	8,0	;volatile
  3972     06DF                     l1541:
  3973                           
  3974                           ;matrix_keypad.c: 33:     for (i = 100; i--; );
  3975     06DF  3064               	movlw	100
  3976     06E0  00F2               	movwf	scan_keypad@i
  3977     06E1  3000               	movlw	0
  3978     06E2  00F3               	movwf	scan_keypad@i+1
  3979     06E3                     l1543:
  3980     06E3  30FF               	movlw	255
  3981     06E4  07F2               	addwf	scan_keypad@i,f
  3982     06E5  1803               	skipnc
  3983     06E6  0AF3               	incf	scan_keypad@i+1,f
  3984     06E7  30FF               	movlw	255
  3985     06E8  07F3               	addwf	scan_keypad@i+1,f
  3986     06E9  0A72               	incf	scan_keypad@i,w
  3987     06EA  1D03               	skipz
  3988     06EB  2EF0               	goto	u911
  3989     06EC  0A73               	incf	scan_keypad@i+1,w
  3990     06ED  1D03               	btfss	3,2
  3991     06EE  2EF0               	goto	u911
  3992     06EF  2EF1               	goto	u910
  3993     06F0                     u911:
  3994     06F0  2EE3               	goto	l1543
  3995     06F1                     u910:
  3996     06F1                     l138:
  3997                           
  3998                           ;matrix_keypad.c: 35:     if (RB0 == 0)
  3999     06F1  1283               	bcf	3,5	;RP0=0, select bank0
  4000     06F2  1303               	bcf	3,6	;RP1=0, select bank0
  4001     06F3  1806               	btfsc	6,0	;volatile
  4002     06F4  2EF6               	goto	u921
  4003     06F5  2EF7               	goto	u920
  4004     06F6                     u921:
  4005     06F6  2EF9               	goto	l139
  4006     06F7                     u920:
  4007     06F7                     l1545:
  4008                           
  4009                           ;matrix_keypad.c: 36:     {;matrix_keypad.c: 37:         return 1;
  4010     06F7  3001               	movlw	1
  4011     06F8  2F84               	goto	l140
  4012     06F9                     l139:	
  4013                           ;matrix_keypad.c: 39:     else if (RB1 == 0)
  4014                           
  4015     06F9  1886               	btfsc	6,1	;volatile
  4016     06FA  2EFC               	goto	u931
  4017     06FB  2EFD               	goto	u930
  4018     06FC                     u931:
  4019     06FC  2EFF               	goto	l142
  4020     06FD                     u930:
  4021     06FD                     l1551:
  4022                           
  4023                           ;matrix_keypad.c: 40:     {;matrix_keypad.c: 41:         return 2;
  4024     06FD  3002               	movlw	2
  4025     06FE  2F84               	goto	l140
  4026     06FF                     l142:	
  4027                           ;matrix_keypad.c: 43:     else if (RB2 == 0)
  4028                           
  4029     06FF  1906               	btfsc	6,2	;volatile
  4030     0700  2F02               	goto	u941
  4031     0701  2F03               	goto	u940
  4032     0702                     u941:
  4033     0702  2F05               	goto	l141
  4034     0703                     u940:
  4035     0703                     l1557:
  4036                           
  4037                           ;matrix_keypad.c: 44:     {;matrix_keypad.c: 45:         return 3;
  4038     0703  3003               	movlw	3
  4039     0704  2F84               	goto	l140
  4040     0705                     l141:
  4041                           
  4042                           ;matrix_keypad.c: 48:     RD3 = 1;
  4043     0705  1588               	bsf	8,3	;volatile
  4044                           
  4045                           ;matrix_keypad.c: 49:     RD2 = 0;
  4046     0706  1108               	bcf	8,2	;volatile
  4047                           
  4048                           ;matrix_keypad.c: 50:     RD1 = 1;
  4049     0707  1488               	bsf	8,1	;volatile
  4050                           
  4051                           ;matrix_keypad.c: 51:     RD0 = 1;
  4052     0708  1408               	bsf	8,0	;volatile
  4053     0709                     l1561:
  4054                           
  4055                           ;matrix_keypad.c: 53:     for (i = 100; i--; );
  4056     0709  3064               	movlw	100
  4057     070A  00F2               	movwf	scan_keypad@i
  4058     070B  3000               	movlw	0
  4059     070C  00F3               	movwf	scan_keypad@i+1
  4060     070D                     l1563:
  4061     070D  30FF               	movlw	255
  4062     070E  07F2               	addwf	scan_keypad@i,f
  4063     070F  1803               	skipnc
  4064     0710  0AF3               	incf	scan_keypad@i+1,f
  4065     0711  30FF               	movlw	255
  4066     0712  07F3               	addwf	scan_keypad@i+1,f
  4067     0713  0A72               	incf	scan_keypad@i,w
  4068     0714  1D03               	skipz
  4069     0715  2F1A               	goto	u951
  4070     0716  0A73               	incf	scan_keypad@i+1,w
  4071     0717  1D03               	btfss	3,2
  4072     0718  2F1A               	goto	u951
  4073     0719  2F1B               	goto	u950
  4074     071A                     u951:
  4075     071A  2F0D               	goto	l1563
  4076     071B                     u950:
  4077     071B                     l147:
  4078                           
  4079                           ;matrix_keypad.c: 55:     if (RB0 == 0)
  4080     071B  1283               	bcf	3,5	;RP0=0, select bank0
  4081     071C  1303               	bcf	3,6	;RP1=0, select bank0
  4082     071D  1806               	btfsc	6,0	;volatile
  4083     071E  2F20               	goto	u961
  4084     071F  2F21               	goto	u960
  4085     0720                     u961:
  4086     0720  2F23               	goto	l148
  4087     0721                     u960:
  4088     0721                     l1565:
  4089                           
  4090                           ;matrix_keypad.c: 56:     {;matrix_keypad.c: 57:         return 4;
  4091     0721  3004               	movlw	4
  4092     0722  2F84               	goto	l140
  4093     0723                     l148:	
  4094                           ;matrix_keypad.c: 59:     else if (RB1 == 0)
  4095                           
  4096     0723  1886               	btfsc	6,1	;volatile
  4097     0724  2F26               	goto	u971
  4098     0725  2F27               	goto	u970
  4099     0726                     u971:
  4100     0726  2F29               	goto	l150
  4101     0727                     u970:
  4102     0727                     l1571:
  4103                           
  4104                           ;matrix_keypad.c: 60:     {;matrix_keypad.c: 61:         return 5;
  4105     0727  3005               	movlw	5
  4106     0728  2F84               	goto	l140
  4107     0729                     l150:	
  4108                           ;matrix_keypad.c: 63:     else if (RB2 == 0)
  4109                           
  4110     0729  1906               	btfsc	6,2	;volatile
  4111     072A  2F2C               	goto	u981
  4112     072B  2F2D               	goto	u980
  4113     072C                     u981:
  4114     072C  2F2F               	goto	l149
  4115     072D                     u980:
  4116     072D                     l1577:
  4117                           
  4118                           ;matrix_keypad.c: 64:     {;matrix_keypad.c: 65:         return 6;
  4119     072D  3006               	movlw	6
  4120     072E  2F84               	goto	l140
  4121     072F                     l149:
  4122                           
  4123                           ;matrix_keypad.c: 68:     RD3 = 1;
  4124     072F  1588               	bsf	8,3	;volatile
  4125                           
  4126                           ;matrix_keypad.c: 69:     RD2 = 1;
  4127     0730  1508               	bsf	8,2	;volatile
  4128                           
  4129                           ;matrix_keypad.c: 70:     RD1 = 0;
  4130     0731  1088               	bcf	8,1	;volatile
  4131                           
  4132                           ;matrix_keypad.c: 71:     RD0 = 1;
  4133     0732  1408               	bsf	8,0	;volatile
  4134     0733                     l1581:
  4135                           
  4136                           ;matrix_keypad.c: 73:     for (i = 100; i--; );
  4137     0733  3064               	movlw	100
  4138     0734  00F2               	movwf	scan_keypad@i
  4139     0735  3000               	movlw	0
  4140     0736  00F3               	movwf	scan_keypad@i+1
  4141     0737                     l1583:
  4142     0737  30FF               	movlw	255
  4143     0738  07F2               	addwf	scan_keypad@i,f
  4144     0739  1803               	skipnc
  4145     073A  0AF3               	incf	scan_keypad@i+1,f
  4146     073B  30FF               	movlw	255
  4147     073C  07F3               	addwf	scan_keypad@i+1,f
  4148     073D  0A72               	incf	scan_keypad@i,w
  4149     073E  1D03               	skipz
  4150     073F  2F44               	goto	u991
  4151     0740  0A73               	incf	scan_keypad@i+1,w
  4152     0741  1D03               	btfss	3,2
  4153     0742  2F44               	goto	u991
  4154     0743  2F45               	goto	u990
  4155     0744                     u991:
  4156     0744  2F37               	goto	l1583
  4157     0745                     u990:
  4158     0745                     l155:
  4159                           
  4160                           ;matrix_keypad.c: 75:     if (RB0 == 0)
  4161     0745  1283               	bcf	3,5	;RP0=0, select bank0
  4162     0746  1303               	bcf	3,6	;RP1=0, select bank0
  4163     0747  1806               	btfsc	6,0	;volatile
  4164     0748  2F4A               	goto	u1001
  4165     0749  2F4B               	goto	u1000
  4166     074A                     u1001:
  4167     074A  2F4D               	goto	l156
  4168     074B                     u1000:
  4169     074B                     l1585:
  4170                           
  4171                           ;matrix_keypad.c: 76:     {;matrix_keypad.c: 77:         return 7;
  4172     074B  3007               	movlw	7
  4173     074C  2F84               	goto	l140
  4174     074D                     l156:	
  4175                           ;matrix_keypad.c: 79:     else if (RB1 == 0)
  4176                           
  4177     074D  1886               	btfsc	6,1	;volatile
  4178     074E  2F50               	goto	u1011
  4179     074F  2F51               	goto	u1010
  4180     0750                     u1011:
  4181     0750  2F53               	goto	l158
  4182     0751                     u1010:
  4183     0751                     l1591:
  4184                           
  4185                           ;matrix_keypad.c: 80:     {;matrix_keypad.c: 81:         return 8;
  4186     0751  3008               	movlw	8
  4187     0752  2F84               	goto	l140
  4188     0753                     l158:	
  4189                           ;matrix_keypad.c: 83:     else if (RB2 == 0)
  4190                           
  4191     0753  1906               	btfsc	6,2	;volatile
  4192     0754  2F56               	goto	u1021
  4193     0755  2F57               	goto	u1020
  4194     0756                     u1021:
  4195     0756  2F59               	goto	l157
  4196     0757                     u1020:
  4197     0757                     l1597:
  4198                           
  4199                           ;matrix_keypad.c: 84:     {;matrix_keypad.c: 85:         return 9;
  4200     0757  3009               	movlw	9
  4201     0758  2F84               	goto	l140
  4202     0759                     l157:
  4203                           
  4204                           ;matrix_keypad.c: 88:     RD3 = 1;
  4205     0759  1588               	bsf	8,3	;volatile
  4206                           
  4207                           ;matrix_keypad.c: 89:     RD2 = 1;
  4208     075A  1508               	bsf	8,2	;volatile
  4209                           
  4210                           ;matrix_keypad.c: 90:     RD1 = 1;
  4211     075B  1488               	bsf	8,1	;volatile
  4212                           
  4213                           ;matrix_keypad.c: 91:     RD0 = 0;
  4214     075C  1008               	bcf	8,0	;volatile
  4215     075D                     l1601:
  4216                           
  4217                           ;matrix_keypad.c: 93:     for (i = 100; i--; );
  4218     075D  3064               	movlw	100
  4219     075E  00F2               	movwf	scan_keypad@i
  4220     075F  3000               	movlw	0
  4221     0760  00F3               	movwf	scan_keypad@i+1
  4222     0761                     l1603:
  4223     0761  30FF               	movlw	255
  4224     0762  07F2               	addwf	scan_keypad@i,f
  4225     0763  1803               	skipnc
  4226     0764  0AF3               	incf	scan_keypad@i+1,f
  4227     0765  30FF               	movlw	255
  4228     0766  07F3               	addwf	scan_keypad@i+1,f
  4229     0767  0A72               	incf	scan_keypad@i,w
  4230     0768  1D03               	skipz
  4231     0769  2F6E               	goto	u1031
  4232     076A  0A73               	incf	scan_keypad@i+1,w
  4233     076B  1D03               	btfss	3,2
  4234     076C  2F6E               	goto	u1031
  4235     076D  2F6F               	goto	u1030
  4236     076E                     u1031:
  4237     076E  2F61               	goto	l1603
  4238     076F                     u1030:
  4239     076F                     l163:
  4240                           
  4241                           ;matrix_keypad.c: 95:     if (RB0 == 0)
  4242     076F  1283               	bcf	3,5	;RP0=0, select bank0
  4243     0770  1303               	bcf	3,6	;RP1=0, select bank0
  4244     0771  1806               	btfsc	6,0	;volatile
  4245     0772  2F74               	goto	u1041
  4246     0773  2F75               	goto	u1040
  4247     0774                     u1041:
  4248     0774  2F77               	goto	l164
  4249     0775                     u1040:
  4250     0775                     l1605:
  4251                           
  4252                           ;matrix_keypad.c: 96:     {;matrix_keypad.c: 97:         return '*';
  4253     0775  302A               	movlw	42
  4254     0776  2F84               	goto	l140
  4255     0777                     l164:	
  4256                           ;matrix_keypad.c: 99:     else if (RB1 == 0)
  4257                           
  4258     0777  1886               	btfsc	6,1	;volatile
  4259     0778  2F7A               	goto	u1051
  4260     0779  2F7B               	goto	u1050
  4261     077A                     u1051:
  4262     077A  2F7D               	goto	l166
  4263     077B                     u1050:
  4264     077B                     l1611:
  4265                           
  4266                           ;matrix_keypad.c: 100:     {;matrix_keypad.c: 101:         return 0;
  4267     077B  3000               	movlw	0
  4268     077C  2F84               	goto	l140
  4269     077D                     l166:	
  4270                           ;matrix_keypad.c: 103:     else if (RB2 == 0)
  4271                           
  4272     077D  1906               	btfsc	6,2	;volatile
  4273     077E  2F80               	goto	u1061
  4274     077F  2F81               	goto	u1060
  4275     0780                     u1061:
  4276     0780  2F83               	goto	l1621
  4277     0781                     u1060:
  4278     0781                     l1617:
  4279                           
  4280                           ;matrix_keypad.c: 104:     {;matrix_keypad.c: 105:         return '#';
  4281     0781  3023               	movlw	35
  4282     0782  2F84               	goto	l140
  4283     0783                     l1621:
  4284                           
  4285                           ;matrix_keypad.c: 108:     return 0xFF;
  4286     0783  30FF               	movlw	255
  4287     0784                     l140:
  4288     0784  0008               	return
  4289     0785                     __end_of_scan_keypad:
  4290                           
  4291                           	psect	text14
  4292     0F04                     __ptext14:	
  4293 ;; *************** function _menu_screen *****************
  4294 ;; Defined at:
  4295 ;;		line 12 in file "microwave_def.c"
  4296 ;; Parameters:    Size  Location     Type
  4297 ;;  reset_flag      1    wreg     unsigned char 
  4298 ;; Auto vars:     Size  Location     Type
  4299 ;;  reset_flag      1    3[BANK0 ] unsigned char 
  4300 ;; Return value:  Size  Location     Type
  4301 ;;                  1    wreg      void 
  4302 ;; Registers used:
  4303 ;;		wreg, fsr0l, fsr0h, status,2, status,0, btemp+1, pclath, cstack
  4304 ;; Tracked objects:
  4305 ;;		On entry : 0/0
  4306 ;;		On exit  : 0/0
  4307 ;;		Unchanged: 0/0
  4308 ;; Data sizes:     COMMON   BANK0   BANK1   BANK3   BANK2
  4309 ;;      Params:         0       0       0       0       0
  4310 ;;      Locals:         0       1       0       0       0
  4311 ;;      Temps:          0       3       0       0       0
  4312 ;;      Totals:         0       4       0       0       0
  4313 ;;Total ram usage:        4 bytes
  4314 ;; Hardware stack levels used: 1
  4315 ;; Hardware stack levels required when called: 3
  4316 ;; This function calls:
  4317 ;;		_clcd_print
  4318 ;;		_clear_display
  4319 ;; This function is called by:
  4320 ;;		_main
  4321 ;;		_operation_mode
  4322 ;; This function uses a non-reentrant model
  4323 ;;
  4324                           
  4325     0F04                     _menu_screen:	
  4326                           ;psect for function _menu_screen
  4327                           
  4328                           
  4329                           ;incstack = 0
  4330                           ; Regs used in _menu_screen: [wreg-fsr0h+status,2+status,0+btemp+1+pclath+cstack]
  4331                           ;menu_screen@reset_flag stored from wreg
  4332     0F04  1283               	bcf	3,5	;RP0=0, select bank0
  4333     0F05  1303               	bcf	3,6	;RP1=0, select bank0
  4334     0F06  00A3               	movwf	menu_screen@reset_flag
  4335     0F07                     l2681:
  4336                           
  4337                           ;microwave_def.c: 12: void menu_screen(unsigned char reset_flag);microwave_def.c: 13: {;
      +                          microwave_def.c: 14:     if (reset_flag == 0x20)
  4338     0F07  3020               	movlw	32
  4339     0F08  0623               	xorwf	menu_screen@reset_flag,w
  4340     0F09  1D03               	btfss	3,2
  4341     0F0A  2F0C               	goto	u2461
  4342     0F0B  2F0D               	goto	u2460
  4343     0F0C                     u2461:
  4344     0F0C  2F2B               	goto	l2689
  4345     0F0D                     u2460:
  4346     0F0D                     l2683:
  4347                           
  4348                           ;microwave_def.c: 15:     {;microwave_def.c: 16:         clear_display();
  4349     0F0D  120A  158A  2518  120A  158A  	fcall	_clear_display
  4350     0F12                     l2685:
  4351                           
  4352                           ;microwave_def.c: 17:         clcd_print("MODES", (0x80 + 5));
  4353     0F12  30FE               	movlw	low (STR_3| (0+32768))
  4354     0F13  00F6               	movwf	clcd_print@str
  4355     0F14  3085               	movlw	high (STR_3| (0+32768))
  4356     0F15  00F7               	movwf	clcd_print@str+1
  4357     0F16  3085               	movlw	133
  4358     0F17  00F8               	movwf	clcd_print@addr
  4359     0F18  120A  158A  25F0  120A  158A  	fcall	_clcd_print
  4360     0F1D                     l2687:
  4361                           
  4362                           ;microwave_def.c: 18:      _delay((unsigned long)((2000)*(20000000/4000.0)));
  4363     0F1D  3033               	movlw	51
  4364     0F1E  1283               	bcf	3,5	;RP0=0, select bank0
  4365     0F1F  1303               	bcf	3,6	;RP1=0, select bank0
  4366     0F20  00A2               	movwf	??_menu_screen+2
  4367     0F21  30BB               	movlw	187
  4368     0F22  00A1               	movwf	??_menu_screen+1
  4369     0F23  30DF               	movlw	223
  4370     0F24  00A0               	movwf	??_menu_screen
  4371     0F25                     u3107:
  4372     0F25  0BA0               	decfsz	??_menu_screen,f
  4373     0F26  2F25               	goto	u3107
  4374     0F27  0BA1               	decfsz	??_menu_screen+1,f
  4375     0F28  2F25               	goto	u3107
  4376     0F29  0BA2               	decfsz	??_menu_screen+2,f
  4377     0F2A  2F25               	goto	u3107
  4378     0F2B                     l2689:
  4379                           
  4380                           ;microwave_def.c: 22:     control_flag = 0x11;
  4381     0F2B  3011               	movlw	17
  4382     0F2C  1283               	bcf	3,5	;RP0=0, select bank0
  4383     0F2D  1303               	bcf	3,6	;RP1=0, select bank0
  4384     0F2E  00D2               	movwf	_control_flag
  4385     0F2F                     l2691:
  4386                           
  4387                           ;microwave_def.c: 26:     clcd_print("1.Micro 2.Grill", (0x80 + 0));
  4388     0F2F  3066               	movlw	low (STR_4| (0+32768))
  4389     0F30  00F6               	movwf	clcd_print@str
  4390     0F31  3085               	movlw	high (STR_4| (0+32768))
  4391     0F32  00F7               	movwf	clcd_print@str+1
  4392     0F33  3080               	movlw	128
  4393     0F34  00F8               	movwf	clcd_print@addr
  4394     0F35  120A  158A  25F0  120A  158A  	fcall	_clcd_print
  4395     0F3A                     l2693:
  4396                           
  4397                           ;microwave_def.c: 27: clcd_print("3.Conv 4.Reheat", (0xC0 + 0));
  4398     0F3A  3076               	movlw	low (STR_5| (0+32768))
  4399     0F3B  00F6               	movwf	clcd_print@str
  4400     0F3C  3085               	movlw	high (STR_5| (0+32768))
  4401     0F3D  00F7               	movwf	clcd_print@str+1
  4402     0F3E  30C0               	movlw	192
  4403     0F3F  00F8               	movwf	clcd_print@addr
  4404     0F40  120A  158A  25F0  120A  158A  	fcall	_clcd_print
  4405     0F45                     l224:
  4406     0F45  0008               	return
  4407     0F46                     __end_of_menu_screen:
  4408                           
  4409                           	psect	text15
  4410     0E8A                     __ptext15:	
  4411 ;; *************** function ___lwmod *****************
  4412 ;; Defined at:
  4413 ;;		line 5 in file "C:\Program Files\Microchip\xc8\v3.00\pic\sources\c99\common\lwmod.c"
  4414 ;; Parameters:    Size  Location     Type
  4415 ;;  divisor         2    2[COMMON] unsigned int 
  4416 ;;  dividend        2    4[COMMON] unsigned int 
  4417 ;; Auto vars:     Size  Location     Type
  4418 ;;  counter         1    6[COMMON] unsigned char 
  4419 ;; Return value:  Size  Location     Type
  4420 ;;                  2    2[COMMON] unsigned int 
  4421 ;; Registers used:
  4422 ;;		wreg, status,2, status,0
  4423 ;; Tracked objects:
  4424 ;;		On entry : 0/0
  4425 ;;		On exit  : 0/0
  4426 ;;		Unchanged: 0/0
  4427 ;; Data sizes:     COMMON   BANK0   BANK1   BANK3   BANK2
  4428 ;;      Params:         4       0       0       0       0
  4429 ;;      Locals:         1       0       0       0       0
  4430 ;;      Temps:          0       0       0       0       0
  4431 ;;      Totals:         5       0       0       0       0
  4432 ;;Total ram usage:        5 bytes
  4433 ;; Hardware stack levels used: 1
  4434 ;; Hardware stack levels required when called: 1
  4435 ;; This function calls:
  4436 ;;		Nothing
  4437 ;; This function is called by:
  4438 ;;		_operation_mode
  4439 ;; This function uses a non-reentrant model
  4440 ;;
  4441                           
  4442     0E8A                     ___lwmod:	
  4443                           ;psect for function ___lwmod
  4444                           
  4445     0E8A                     l1701:	
  4446                           ;incstack = 0
  4447                           ; Regs used in ___lwmod: [wreg+status,2+status,0]
  4448                           
  4449     0E8A  0872               	movf	___lwmod@divisor,w
  4450     0E8B  0473               	iorwf	___lwmod@divisor+1,w
  4451     0E8C  1903               	btfsc	3,2
  4452     0E8D  2E8F               	goto	u1191
  4453     0E8E  2E90               	goto	u1190
  4454     0E8F                     u1191:
  4455     0E8F  2EBD               	goto	l1719
  4456     0E90                     u1190:
  4457     0E90                     l1703:
  4458     0E90  3001               	movlw	1
  4459     0E91  00F6               	movwf	___lwmod@counter
  4460     0E92  2E9C               	goto	l1709
  4461     0E93                     l1705:
  4462     0E93  3001               	movlw	1
  4463     0E94                     u1205:
  4464     0E94  1003               	clrc
  4465     0E95  0DF2               	rlf	___lwmod@divisor,f
  4466     0E96  0DF3               	rlf	___lwmod@divisor+1,f
  4467     0E97  3EFF               	addlw	-1
  4468     0E98  1D03               	skipz
  4469     0E99  2E94               	goto	u1205
  4470     0E9A                     l1707:
  4471     0E9A  3001               	movlw	1
  4472     0E9B  07F6               	addwf	___lwmod@counter,f
  4473     0E9C                     l1709:
  4474     0E9C  1FF3               	btfss	___lwmod@divisor+1,7
  4475     0E9D  2E9F               	goto	u1211
  4476     0E9E  2EA0               	goto	u1210
  4477     0E9F                     u1211:
  4478     0E9F  2E93               	goto	l1705
  4479     0EA0                     u1210:
  4480     0EA0                     l1711:
  4481     0EA0  0873               	movf	___lwmod@divisor+1,w
  4482     0EA1  0275               	subwf	___lwmod@dividend+1,w
  4483     0EA2  1D03               	skipz
  4484     0EA3  2EA6               	goto	u1225
  4485     0EA4  0872               	movf	___lwmod@divisor,w
  4486     0EA5  0274               	subwf	___lwmod@dividend,w
  4487     0EA6                     u1225:
  4488     0EA6  1C03               	skipc
  4489     0EA7  2EA9               	goto	u1221
  4490     0EA8  2EAA               	goto	u1220
  4491     0EA9                     u1221:
  4492     0EA9  2EB0               	goto	l1715
  4493     0EAA                     u1220:
  4494     0EAA                     l1713:
  4495     0EAA  0872               	movf	___lwmod@divisor,w
  4496     0EAB  02F4               	subwf	___lwmod@dividend,f
  4497     0EAC  0873               	movf	___lwmod@divisor+1,w
  4498     0EAD  1C03               	skipc
  4499     0EAE  03F5               	decf	___lwmod@dividend+1,f
  4500     0EAF  02F5               	subwf	___lwmod@dividend+1,f
  4501     0EB0                     l1715:
  4502     0EB0  3001               	movlw	1
  4503     0EB1                     u1235:
  4504     0EB1  1003               	clrc
  4505     0EB2  0CF3               	rrf	___lwmod@divisor+1,f
  4506     0EB3  0CF2               	rrf	___lwmod@divisor,f
  4507     0EB4  3EFF               	addlw	-1
  4508     0EB5  1D03               	skipz
  4509     0EB6  2EB1               	goto	u1235
  4510     0EB7                     l1717:
  4511     0EB7  3001               	movlw	1
  4512     0EB8  02F6               	subwf	___lwmod@counter,f
  4513     0EB9  1D03               	btfss	3,2
  4514     0EBA  2EBC               	goto	u1241
  4515     0EBB  2EBD               	goto	u1240
  4516     0EBC                     u1241:
  4517     0EBC  2EA0               	goto	l1711
  4518     0EBD                     u1240:
  4519     0EBD                     l1719:
  4520     0EBD  0875               	movf	___lwmod@dividend+1,w
  4521     0EBE  00F3               	movwf	?___lwmod+1
  4522     0EBF  0874               	movf	___lwmod@dividend,w
  4523     0EC0  00F2               	movwf	?___lwmod
  4524     0EC1                     l707:
  4525     0EC1  0008               	return
  4526     0EC2                     __end_of___lwmod:
  4527                           
  4528                           	psect	text16
  4529     0EC2                     __ptext16:	
  4530 ;; *************** function ___lwdiv *****************
  4531 ;; Defined at:
  4532 ;;		line 5 in file "C:\Program Files\Microchip\xc8\v3.00\pic\sources\c99\common\lwdiv.c"
  4533 ;; Parameters:    Size  Location     Type
  4534 ;;  divisor         2    2[COMMON] unsigned int 
  4535 ;;  dividend        2    4[COMMON] unsigned int 
  4536 ;; Auto vars:     Size  Location     Type
  4537 ;;  quotient        2    6[COMMON] unsigned int 
  4538 ;;  counter         1    8[COMMON] unsigned char 
  4539 ;; Return value:  Size  Location     Type
  4540 ;;                  2    2[COMMON] unsigned int 
  4541 ;; Registers used:
  4542 ;;		wreg, status,2, status,0
  4543 ;; Tracked objects:
  4544 ;;		On entry : 0/0
  4545 ;;		On exit  : 0/0
  4546 ;;		Unchanged: 0/0
  4547 ;; Data sizes:     COMMON   BANK0   BANK1   BANK3   BANK2
  4548 ;;      Params:         4       0       0       0       0
  4549 ;;      Locals:         3       0       0       0       0
  4550 ;;      Temps:          0       0       0       0       0
  4551 ;;      Totals:         7       0       0       0       0
  4552 ;;Total ram usage:        7 bytes
  4553 ;; Hardware stack levels used: 1
  4554 ;; Hardware stack levels required when called: 1
  4555 ;; This function calls:
  4556 ;;		Nothing
  4557 ;; This function is called by:
  4558 ;;		_operation_mode
  4559 ;; This function uses a non-reentrant model
  4560 ;;
  4561                           
  4562     0EC2                     ___lwdiv:	
  4563                           ;psect for function ___lwdiv
  4564                           
  4565     0EC2                     l1675:	
  4566                           ;incstack = 0
  4567                           ; Regs used in ___lwdiv: [wreg+status,2+status,0]
  4568                           
  4569     0EC2  01F6               	clrf	___lwdiv@quotient
  4570     0EC3  01F7               	clrf	___lwdiv@quotient+1
  4571     0EC4                     l1677:
  4572     0EC4  0872               	movf	___lwdiv@divisor,w
  4573     0EC5  0473               	iorwf	___lwdiv@divisor+1,w
  4574     0EC6  1903               	btfsc	3,2
  4575     0EC7  2EC9               	goto	u1121
  4576     0EC8  2ECA               	goto	u1120
  4577     0EC9                     u1121:
  4578     0EC9  2EFF               	goto	l1697
  4579     0ECA                     u1120:
  4580     0ECA                     l1679:
  4581     0ECA  3001               	movlw	1
  4582     0ECB  00F8               	movwf	___lwdiv@counter
  4583     0ECC  2ED6               	goto	l1685
  4584     0ECD                     l1681:
  4585     0ECD  3001               	movlw	1
  4586     0ECE                     u1135:
  4587     0ECE  1003               	clrc
  4588     0ECF  0DF2               	rlf	___lwdiv@divisor,f
  4589     0ED0  0DF3               	rlf	___lwdiv@divisor+1,f
  4590     0ED1  3EFF               	addlw	-1
  4591     0ED2  1D03               	skipz
  4592     0ED3  2ECE               	goto	u1135
  4593     0ED4                     l1683:
  4594     0ED4  3001               	movlw	1
  4595     0ED5  07F8               	addwf	___lwdiv@counter,f
  4596     0ED6                     l1685:
  4597     0ED6  1FF3               	btfss	___lwdiv@divisor+1,7
  4598     0ED7  2ED9               	goto	u1141
  4599     0ED8  2EDA               	goto	u1140
  4600     0ED9                     u1141:
  4601     0ED9  2ECD               	goto	l1681
  4602     0EDA                     u1140:
  4603     0EDA                     l1687:
  4604     0EDA  3001               	movlw	1
  4605     0EDB                     u1155:
  4606     0EDB  1003               	clrc
  4607     0EDC  0DF6               	rlf	___lwdiv@quotient,f
  4608     0EDD  0DF7               	rlf	___lwdiv@quotient+1,f
  4609     0EDE  3EFF               	addlw	-1
  4610     0EDF  1D03               	skipz
  4611     0EE0  2EDB               	goto	u1155
  4612     0EE1  0873               	movf	___lwdiv@divisor+1,w
  4613     0EE2  0275               	subwf	___lwdiv@dividend+1,w
  4614     0EE3  1D03               	skipz
  4615     0EE4  2EE7               	goto	u1165
  4616     0EE5  0872               	movf	___lwdiv@divisor,w
  4617     0EE6  0274               	subwf	___lwdiv@dividend,w
  4618     0EE7                     u1165:
  4619     0EE7  1C03               	skipc
  4620     0EE8  2EEA               	goto	u1161
  4621     0EE9  2EEB               	goto	u1160
  4622     0EEA                     u1161:
  4623     0EEA  2EF2               	goto	l1693
  4624     0EEB                     u1160:
  4625     0EEB                     l1689:
  4626     0EEB  0872               	movf	___lwdiv@divisor,w
  4627     0EEC  02F4               	subwf	___lwdiv@dividend,f
  4628     0EED  0873               	movf	___lwdiv@divisor+1,w
  4629     0EEE  1C03               	skipc
  4630     0EEF  03F5               	decf	___lwdiv@dividend+1,f
  4631     0EF0  02F5               	subwf	___lwdiv@dividend+1,f
  4632     0EF1                     l1691:
  4633     0EF1  1476               	bsf	___lwdiv@quotient,0
  4634     0EF2                     l1693:
  4635     0EF2  3001               	movlw	1
  4636     0EF3                     u1175:
  4637     0EF3  1003               	clrc
  4638     0EF4  0CF3               	rrf	___lwdiv@divisor+1,f
  4639     0EF5  0CF2               	rrf	___lwdiv@divisor,f
  4640     0EF6  3EFF               	addlw	-1
  4641     0EF7  1D03               	skipz
  4642     0EF8  2EF3               	goto	u1175
  4643     0EF9                     l1695:
  4644     0EF9  3001               	movlw	1
  4645     0EFA  02F8               	subwf	___lwdiv@counter,f
  4646     0EFB  1D03               	btfss	3,2
  4647     0EFC  2EFE               	goto	u1181
  4648     0EFD  2EFF               	goto	u1180
  4649     0EFE                     u1181:
  4650     0EFE  2EDA               	goto	l1687
  4651     0EFF                     u1180:
  4652     0EFF                     l1697:
  4653     0EFF  0877               	movf	___lwdiv@quotient+1,w
  4654     0F00  00F3               	movwf	?___lwdiv+1
  4655     0F01  0876               	movf	___lwdiv@quotient,w
  4656     0F02  00F2               	movwf	?___lwdiv
  4657     0F03                     l697:
  4658     0F03  0008               	return
  4659     0F04                     __end_of___lwdiv:
  4660                           
  4661                           	psect	text17
  4662     04DE                     __ptext17:	
  4663 ;; *************** function _memset *****************
  4664 ;; Defined at:
  4665 ;;		line 3 in file "C:\Program Files\Microchip\xc8\v3.00\pic\sources\c99\common\memset.c"
  4666 ;; Parameters:    Size  Location     Type
  4667 ;;  dest            1    2[COMMON] PTR void 
  4668 ;;		 -> temp_arr(6), time_arr(8), 
  4669 ;;  c               2    3[COMMON] int 
  4670 ;;  n               2    5[COMMON] unsigned int 
  4671 ;; Auto vars:     Size  Location     Type
  4672 ;;  p               1    7[COMMON] PTR unsigned char 
  4673 ;;		 -> temp_arr(6), time_arr(8), 
  4674 ;; Return value:  Size  Location     Type
  4675 ;;                  1    2[COMMON] PTR void 
  4676 ;; Registers used:
  4677 ;;		wreg, fsr0l, fsr0h, status,2, status,0
  4678 ;; Tracked objects:
  4679 ;;		On entry : 0/0
  4680 ;;		On exit  : 0/0
  4681 ;;		Unchanged: 0/0
  4682 ;; Data sizes:     COMMON   BANK0   BANK1   BANK3   BANK2
  4683 ;;      Params:         5       0       0       0       0
  4684 ;;      Locals:         1       0       0       0       0
  4685 ;;      Temps:          0       0       0       0       0
  4686 ;;      Totals:         6       0       0       0       0
  4687 ;;Total ram usage:        6 bytes
  4688 ;; Hardware stack levels used: 1
  4689 ;; Hardware stack levels required when called: 1
  4690 ;; This function calls:
  4691 ;;		Nothing
  4692 ;; This function is called by:
  4693 ;;		_set_time_screen
  4694 ;;		_set_temp
  4695 ;; This function uses a non-reentrant model
  4696 ;;
  4697                           
  4698     04DE                     _memset:	
  4699                           ;psect for function _memset
  4700                           
  4701     04DE                     l1723:	
  4702                           ;incstack = 0
  4703                           ; Regs used in _memset: [wreg-fsr0h+status,2+status,0]
  4704                           
  4705     04DE  0872               	movf	memset@dest,w
  4706     04DF  00F7               	movwf	memset@p
  4707     04E0  2CE8               	goto	l1729
  4708     04E1                     l1725:
  4709     04E1  0877               	movf	memset@p,w
  4710     04E2  0084               	movwf	4
  4711     04E3  0873               	movf	memset@c,w
  4712     04E4  1383               	bcf	3,7	;select IRP bank0
  4713     04E5  0080               	movwf	0
  4714     04E6                     l1727:
  4715     04E6  3001               	movlw	1
  4716     04E7  07F7               	addwf	memset@p,f
  4717     04E8                     l1729:
  4718     04E8  3001               	movlw	1
  4719     04E9  02F5               	subwf	memset@n,f
  4720     04EA  3000               	movlw	0
  4721     04EB  1C03               	skipc
  4722     04EC  03F6               	decf	memset@n+1,f
  4723     04ED  02F6               	subwf	memset@n+1,f
  4724     04EE  0A75               	incf	memset@n,w
  4725     04EF  1D03               	skipz
  4726     04F0  2CF5               	goto	u1251
  4727     04F1  0A76               	incf	memset@n+1,w
  4728     04F2  1D03               	btfss	3,2
  4729     04F3  2CF5               	goto	u1251
  4730     04F4  2CF6               	goto	u1250
  4731     04F5                     u1251:
  4732     04F5  2CE1               	goto	l1725
  4733     04F6                     u1250:
  4734     04F6                     l879:
  4735     04F6  0008               	return
  4736     04F7                     __end_of_memset:
  4737                           
  4738                           	psect	text18
  4739     0D9E                     __ptext18:	
  4740 ;; *************** function ___wmul *****************
  4741 ;; Defined at:
  4742 ;;		line 15 in file "C:\Program Files\Microchip\xc8\v3.00\pic\sources\c99\common\Umul16.c"
  4743 ;; Parameters:    Size  Location     Type
  4744 ;;  multiplier      2    2[COMMON] unsigned int 
  4745 ;;  multiplicand    2    4[COMMON] unsigned int 
  4746 ;; Auto vars:     Size  Location     Type
  4747 ;;  product         2    6[COMMON] unsigned int 
  4748 ;; Return value:  Size  Location     Type
  4749 ;;                  2    2[COMMON] unsigned int 
  4750 ;; Registers used:
  4751 ;;		wreg, status,2, status,0
  4752 ;; Tracked objects:
  4753 ;;		On entry : 0/0
  4754 ;;		On exit  : 0/0
  4755 ;;		Unchanged: 0/0
  4756 ;; Data sizes:     COMMON   BANK0   BANK1   BANK3   BANK2
  4757 ;;      Params:         4       0       0       0       0
  4758 ;;      Locals:         2       0       0       0       0
  4759 ;;      Temps:          0       0       0       0       0
  4760 ;;      Totals:         6       0       0       0       0
  4761 ;;Total ram usage:        6 bytes
  4762 ;; Hardware stack levels used: 1
  4763 ;; Hardware stack levels required when called: 1
  4764 ;; This function calls:
  4765 ;;		Nothing
  4766 ;; This function is called by:
  4767 ;;		_set_time_screen
  4768 ;;		_set_temp
  4769 ;; This function uses a non-reentrant model
  4770 ;;
  4771                           
  4772     0D9E                     ___wmul:	
  4773                           ;psect for function ___wmul
  4774                           
  4775     0D9E                     l1807:	
  4776                           ;incstack = 0
  4777                           ; Regs used in ___wmul: [wreg+status,2+status,0]
  4778                           
  4779     0D9E  01F6               	clrf	___wmul@product
  4780     0D9F  01F7               	clrf	___wmul@product+1
  4781     0DA0                     l1809:
  4782     0DA0  1C72               	btfss	___wmul@multiplier,0
  4783     0DA1  2DA3               	goto	u1331
  4784     0DA2  2DA4               	goto	u1330
  4785     0DA3                     u1331:
  4786     0DA3  2DAA               	goto	l417
  4787     0DA4                     u1330:
  4788     0DA4                     l1811:
  4789     0DA4  0874               	movf	___wmul@multiplicand,w
  4790     0DA5  07F6               	addwf	___wmul@product,f
  4791     0DA6  1803               	skipnc
  4792     0DA7  0AF7               	incf	___wmul@product+1,f
  4793     0DA8  0875               	movf	___wmul@multiplicand+1,w
  4794     0DA9  07F7               	addwf	___wmul@product+1,f
  4795     0DAA                     l417:
  4796     0DAA  3001               	movlw	1
  4797     0DAB                     u1345:
  4798     0DAB  1003               	clrc
  4799     0DAC  0DF4               	rlf	___wmul@multiplicand,f
  4800     0DAD  0DF5               	rlf	___wmul@multiplicand+1,f
  4801     0DAE  3EFF               	addlw	-1
  4802     0DAF  1D03               	skipz
  4803     0DB0  2DAB               	goto	u1345
  4804     0DB1                     l1813:
  4805     0DB1  3001               	movlw	1
  4806     0DB2                     u1355:
  4807     0DB2  1003               	clrc
  4808     0DB3  0CF3               	rrf	___wmul@multiplier+1,f
  4809     0DB4  0CF2               	rrf	___wmul@multiplier,f
  4810     0DB5  3EFF               	addlw	-1
  4811     0DB6  1D03               	skipz
  4812     0DB7  2DB2               	goto	u1355
  4813     0DB8                     l1815:
  4814     0DB8  0872               	movf	___wmul@multiplier,w
  4815     0DB9  0473               	iorwf	___wmul@multiplier+1,w
  4816     0DBA  1D03               	btfss	3,2
  4817     0DBB  2DBD               	goto	u1361
  4818     0DBC  2DBE               	goto	u1360
  4819     0DBD                     u1361:
  4820     0DBD  2DA0               	goto	l1809
  4821     0DBE                     u1360:
  4822     0DBE                     l1817:
  4823     0DBE  0877               	movf	___wmul@product+1,w
  4824     0DBF  00F3               	movwf	?___wmul+1
  4825     0DC0  0876               	movf	___wmul@product,w
  4826     0DC1  00F2               	movwf	?___wmul
  4827     0DC2                     l419:
  4828     0DC2  0008               	return
  4829     0DC3                     __end_of___wmul:
  4830                           
  4831                           	psect	text19
  4832     0D29                     __ptext19:	
  4833 ;; *************** function ___bmul *****************
  4834 ;; Defined at:
  4835 ;;		line 4 in file "C:\Program Files\Microchip\xc8\v3.00\pic\sources\c99\common\Umul8.c"
  4836 ;; Parameters:    Size  Location     Type
  4837 ;;  multiplier      1    wreg     unsigned char 
  4838 ;;  multiplicand    1    2[COMMON] unsigned char 
  4839 ;; Auto vars:     Size  Location     Type
  4840 ;;  multiplier      1    4[COMMON] unsigned char 
  4841 ;;  product         1    3[COMMON] unsigned char 
  4842 ;; Return value:  Size  Location     Type
  4843 ;;                  1    wreg      unsigned char 
  4844 ;; Registers used:
  4845 ;;		wreg, status,2, status,0
  4846 ;; Tracked objects:
  4847 ;;		On entry : 0/0
  4848 ;;		On exit  : 0/0
  4849 ;;		Unchanged: 0/0
  4850 ;; Data sizes:     COMMON   BANK0   BANK1   BANK3   BANK2
  4851 ;;      Params:         1       0       0       0       0
  4852 ;;      Locals:         2       0       0       0       0
  4853 ;;      Temps:          0       0       0       0       0
  4854 ;;      Totals:         3       0       0       0       0
  4855 ;;Total ram usage:        3 bytes
  4856 ;; Hardware stack levels used: 1
  4857 ;; Hardware stack levels required when called: 1
  4858 ;; This function calls:
  4859 ;;		Nothing
  4860 ;; This function is called by:
  4861 ;;		_set_time_screen
  4862 ;; This function uses a non-reentrant model
  4863 ;;
  4864                           
  4865     0D29                     ___bmul:	
  4866                           ;psect for function ___bmul
  4867                           
  4868                           
  4869                           ;incstack = 0
  4870                           ; Regs used in ___bmul: [wreg+status,2+status,0]
  4871                           ;___bmul@multiplier stored from wreg
  4872     0D29  00F4               	movwf	___bmul@multiplier
  4873     0D2A                     l1821:
  4874     0D2A  01F3               	clrf	___bmul@product
  4875     0D2B                     l1823:
  4876     0D2B  1C74               	btfss	___bmul@multiplier,0
  4877     0D2C  2D2E               	goto	u1371
  4878     0D2D  2D2F               	goto	u1370
  4879     0D2E                     u1371:
  4880     0D2E  2D31               	goto	l1827
  4881     0D2F                     u1370:
  4882     0D2F                     l1825:
  4883     0D2F  0872               	movf	___bmul@multiplicand,w
  4884     0D30  07F3               	addwf	___bmul@product,f
  4885     0D31                     l1827:
  4886     0D31  1003               	clrc
  4887     0D32  0DF2               	rlf	___bmul@multiplicand,f
  4888     0D33                     l1829:
  4889     0D33  1003               	clrc
  4890     0D34  0CF4               	rrf	___bmul@multiplier,f
  4891     0D35  0874               	movf	___bmul@multiplier,w
  4892     0D36  1D03               	btfss	3,2
  4893     0D37  2D39               	goto	u1381
  4894     0D38  2D3A               	goto	u1380
  4895     0D39                     u1381:
  4896     0D39  2D2B               	goto	l1823
  4897     0D3A                     u1380:
  4898     0D3A                     l1831:
  4899     0D3A  0873               	movf	___bmul@product,w
  4900     0D3B                     l443:
  4901     0D3B  0008               	return
  4902     0D3C                     __end_of___bmul:
  4903                           
  4904                           	psect	text20
  4905     0785                     __ptext20:	
  4906 ;; *************** function _preheat_screen *****************
  4907 ;; Defined at:
  4908 ;;		line 275 in file "microwave_def.c"
  4909 ;; Parameters:    Size  Location     Type
  4910 ;;		None
  4911 ;; Auto vars:     Size  Location     Type
  4912 ;;		None
  4913 ;; Return value:  Size  Location     Type
  4914 ;;                  1    wreg      unsigned char 
  4915 ;; Registers used:
  4916 ;;		wreg, fsr0l, fsr0h, status,2, status,0, btemp+1, pclath, cstack
  4917 ;; Tracked objects:
  4918 ;;		On entry : 0/0
  4919 ;;		On exit  : 0/0
  4920 ;;		Unchanged: 0/0
  4921 ;; Data sizes:     COMMON   BANK0   BANK1   BANK3   BANK2
  4922 ;;      Params:         0       0       0       0       0
  4923 ;;      Locals:         0       0       0       0       0
  4924 ;;      Temps:          0       2       0       0       0
  4925 ;;      Totals:         0       2       0       0       0
  4926 ;;Total ram usage:        2 bytes
  4927 ;; Hardware stack levels used: 1
  4928 ;; Hardware stack levels required when called: 3
  4929 ;; This function calls:
  4930 ;;		___awdiv
  4931 ;;		___awmod
  4932 ;;		_clcd_print
  4933 ;;		_clcd_putch
  4934 ;;		_clear_display
  4935 ;; This function is called by:
  4936 ;;		_set_temp
  4937 ;; This function uses a non-reentrant model
  4938 ;;
  4939                           
  4940     0785                     _preheat_screen:	
  4941                           ;psect for function _preheat_screen
  4942                           
  4943     0785                     l2907:	
  4944                           ;incstack = 0
  4945                           ; Regs used in _preheat_screen: [wreg-fsr0h+status,2+status,0+btemp+1+pclath+cstack]
  4946                           
  4947                           
  4948                           ;microwave_def.c: 277:     clear_display();
  4949     0785  120A  158A  2518  120A  118A  	fcall	_clear_display
  4950     078A                     l2909:
  4951                           
  4952                           ;microwave_def.c: 278:     clcd_print("Pre-heating", (0x80 + 0));
  4953     078A  30C8               	movlw	low (STR_23| (0+32768))
  4954     078B  00F6               	movwf	clcd_print@str
  4955     078C  3085               	movlw	high (STR_23| (0+32768))
  4956     078D  00F7               	movwf	clcd_print@str+1
  4957     078E  3080               	movlw	128
  4958     078F  00F8               	movwf	clcd_print@addr
  4959     0790  120A  158A  25F0  120A  118A  	fcall	_clcd_print
  4960     0795                     l2911:
  4961                           
  4962                           ;microwave_def.c: 279:     clcd_print("Time left: ", (0xC0 + 0));
  4963     0795  30B0               	movlw	low (STR_24| (0+32768))
  4964     0796  00F6               	movwf	clcd_print@str
  4965     0797  3085               	movlw	high (STR_24| (0+32768))
  4966     0798  00F7               	movwf	clcd_print@str+1
  4967     0799  30C0               	movlw	192
  4968     079A  00F8               	movwf	clcd_print@addr
  4969     079B  120A  158A  25F0  120A  118A  	fcall	_clcd_print
  4970     07A0                     l2913:
  4971                           
  4972                           ;microwave_def.c: 281:     temp_time_count = 60;
  4973     07A0  303C               	movlw	60
  4974     07A1  00FA               	movwf	_temp_time_count
  4975     07A2                     l2915:
  4976                           
  4977                           ;microwave_def.c: 282:     TMR2ON = 1;
  4978     07A2  1283               	bcf	3,5	;RP0=0, select bank0
  4979     07A3  1303               	bcf	3,6	;RP1=0, select bank0
  4980     07A4  1512               	bsf	18,2	;volatile
  4981                           
  4982                           ;microwave_def.c: 284:     while (temp_time_count)
  4983     07A5  2FEC               	goto	l2919
  4984     07A6                     l2917:
  4985                           
  4986                           ;microwave_def.c: 285:     {;microwave_def.c: 286:         clcd_putch('0', (0xC0 + 11));
  4987     07A6  30CB               	movlw	203
  4988     07A7  00F8               	movwf	clcd_putch@addr
  4989     07A8  3030               	movlw	48
  4990     07A9  120A  158A  2550  120A  118A  	fcall	_clcd_putch
  4991                           
  4992                           ;microwave_def.c: 287:         clcd_putch('0' + temp_time_count / 10, (0xC0 + 12));
  4993     07AE  30CC               	movlw	204
  4994     07AF  00F8               	movwf	clcd_putch@addr
  4995     07B0  300A               	movlw	10
  4996     07B1  00F2               	movwf	___awdiv@divisor
  4997     07B2  3000               	movlw	0
  4998     07B3  00F3               	movwf	___awdiv@divisor+1
  4999     07B4  087A               	movf	_temp_time_count,w
  5000     07B5  1283               	bcf	3,5	;RP0=0, select bank0
  5001     07B6  1303               	bcf	3,6	;RP1=0, select bank0
  5002     07B7  00A5               	movwf	??_preheat_screen
  5003     07B8  01A6               	clrf	??_preheat_screen+1
  5004     07B9  0825               	movf	??_preheat_screen,w
  5005     07BA  00F4               	movwf	___awdiv@dividend
  5006     07BB  0826               	movf	??_preheat_screen+1,w
  5007     07BC  00F5               	movwf	___awdiv@dividend+1
  5008     07BD  120A  118A  2479  120A  118A  	fcall	___awdiv
  5009     07C2  0872               	movf	?___awdiv,w
  5010     07C3  3E30               	addlw	48
  5011     07C4  120A  158A  2550  120A  118A  	fcall	_clcd_putch
  5012                           
  5013                           ;microwave_def.c: 288:         clcd_putch('0' + temp_time_count % 10, (0xC0 + 13));
  5014     07C9  30CD               	movlw	205
  5015     07CA  00F8               	movwf	clcd_putch@addr
  5016     07CB  300A               	movlw	10
  5017     07CC  00F2               	movwf	___awmod@divisor
  5018     07CD  3000               	movlw	0
  5019     07CE  00F3               	movwf	___awmod@divisor+1
  5020     07CF  087A               	movf	_temp_time_count,w
  5021     07D0  1283               	bcf	3,5	;RP0=0, select bank0
  5022     07D1  1303               	bcf	3,6	;RP1=0, select bank0
  5023     07D2  00A5               	movwf	??_preheat_screen
  5024     07D3  01A6               	clrf	??_preheat_screen+1
  5025     07D4  0825               	movf	??_preheat_screen,w
  5026     07D5  00F4               	movwf	___awmod@dividend
  5027     07D6  0826               	movf	??_preheat_screen+1,w
  5028     07D7  00F5               	movwf	___awmod@dividend+1
  5029     07D8  120A  158A  2746  120A  118A  	fcall	___awmod
  5030     07DD  0872               	movf	?___awmod,w
  5031     07DE  3E30               	addlw	48
  5032     07DF  120A  158A  2550  120A  118A  	fcall	_clcd_putch
  5033                           
  5034                           ;microwave_def.c: 289:         clcd_putch('s', (0xC0 + 14));
  5035     07E4  30CE               	movlw	206
  5036     07E5  00F8               	movwf	clcd_putch@addr
  5037     07E6  3073               	movlw	115
  5038     07E7  120A  158A  2550  120A  118A  	fcall	_clcd_putch
  5039     07EC                     l2919:
  5040                           
  5041                           ;microwave_def.c: 284:     while (temp_time_count)
  5042     07EC  087A               	movf	_temp_time_count,w
  5043     07ED  1D03               	btfss	3,2
  5044     07EE  2FF0               	goto	u2791
  5045     07EF  2FF1               	goto	u2790
  5046     07F0                     u2791:
  5047     07F0  2FA6               	goto	l2917
  5048     07F1                     u2790:
  5049     07F1                     l2921:
  5050                           
  5051                           ;microwave_def.c: 292:     return 0x01;
  5052     07F1  3001               	movlw	1
  5053     07F2                     l301:
  5054     07F2  0008               	return
  5055     07F3                     __end_of_preheat_screen:
  5056                           
  5057                           	psect	text21
  5058     0D18                     __ptext21:	
  5059 ;; *************** function _clear_display *****************
  5060 ;; Defined at:
  5061 ;;		line 301 in file "microwave_def.c"
  5062 ;; Parameters:    Size  Location     Type
  5063 ;;		None
  5064 ;; Auto vars:     Size  Location     Type
  5065 ;;		None
  5066 ;; Return value:  Size  Location     Type
  5067 ;;                  1    wreg      void 
  5068 ;; Registers used:
  5069 ;;		wreg, status,2, status,0, pclath, cstack
  5070 ;; Tracked objects:
  5071 ;;		On entry : 0/0
  5072 ;;		On exit  : 0/0
  5073 ;;		Unchanged: 0/0
  5074 ;; Data sizes:     COMMON   BANK0   BANK1   BANK3   BANK2
  5075 ;;      Params:         0       0       0       0       0
  5076 ;;      Locals:         0       0       0       0       0
  5077 ;;      Temps:          2       0       0       0       0
  5078 ;;      Totals:         2       0       0       0       0
  5079 ;;Total ram usage:        2 bytes
  5080 ;; Hardware stack levels used: 1
  5081 ;; Hardware stack levels required when called: 2
  5082 ;; This function calls:
  5083 ;;		_clcd_write
  5084 ;; This function is called by:
  5085 ;;		_menu_screen
  5086 ;;		_micro_mode
  5087 ;;		_set_time_screen
  5088 ;;		_operation_mode
  5089 ;;		_convention_mode
  5090 ;;		_preheat_screen
  5091 ;; This function uses a non-reentrant model
  5092 ;;
  5093                           
  5094     0D18                     _clear_display:	
  5095                           ;psect for function _clear_display
  5096                           
  5097     0D18                     l2675:	
  5098                           ;incstack = 0
  5099                           ; Regs used in _clear_display: [wreg+status,2+status,0+pclath+cstack]
  5100                           
  5101                           
  5102                           ;microwave_def.c: 303:     clcd_write(0x01, 0);
  5103     0D18  01F2               	clrf	clcd_write@mode
  5104     0D19  3001               	movlw	1
  5105     0D1A  120A  158A  2654  120A  158A  	fcall	_clcd_write
  5106     0D1F                     l2677:
  5107                           
  5108                           ;microwave_def.c: 304:     _delay((unsigned long)((500)*(20000000/4000000.0)));
  5109     0D1F  3004               	movlw	4
  5110     0D20  00F7               	movwf	??_clear_display+1
  5111     0D21  303D               	movlw	61
  5112     0D22  00F6               	movwf	??_clear_display
  5113     0D23                     u3117:
  5114     0D23  0BF6               	decfsz	??_clear_display,f
  5115     0D24  2D23               	goto	u3117
  5116     0D25  0BF7               	decfsz	??_clear_display+1,f
  5117     0D26  2D23               	goto	u3117
  5118     0D27  2D28               	nop2
  5119     0D28                     l307:
  5120     0D28  0008               	return
  5121     0D29                     __end_of_clear_display:
  5122                           
  5123                           	psect	text22
  5124     0D50                     __ptext22:	
  5125 ;; *************** function _clcd_putch *****************
  5126 ;; Defined at:
  5127 ;;		line 55 in file "clcd.c"
  5128 ;; Parameters:    Size  Location     Type
  5129 ;;  data            1    wreg     const unsigned char 
  5130 ;;  addr            1    8[COMMON] unsigned char 
  5131 ;; Auto vars:     Size  Location     Type
  5132 ;;  data            1    4[BANK0 ] const unsigned char 
  5133 ;; Return value:  Size  Location     Type
  5134 ;;                  1    wreg      void 
  5135 ;; Registers used:
  5136 ;;		wreg, status,2, status,0, pclath, cstack
  5137 ;; Tracked objects:
  5138 ;;		On entry : 0/0
  5139 ;;		On exit  : 0/0
  5140 ;;		Unchanged: 0/0
  5141 ;; Data sizes:     COMMON   BANK0   BANK1   BANK3   BANK2
  5142 ;;      Params:         1       0       0       0       0
  5143 ;;      Locals:         0       1       0       0       0
  5144 ;;      Temps:          0       0       0       0       0
  5145 ;;      Totals:         1       1       0       0       0
  5146 ;;Total ram usage:        2 bytes
  5147 ;; Hardware stack levels used: 1
  5148 ;; Hardware stack levels required when called: 2
  5149 ;; This function calls:
  5150 ;;		_clcd_write
  5151 ;; This function is called by:
  5152 ;;		_main
  5153 ;;		_set_time_screen
  5154 ;;		_operation_mode
  5155 ;;		_set_temp
  5156 ;;		_preheat_screen
  5157 ;; This function uses a non-reentrant model
  5158 ;;
  5159                           
  5160     0D50                     _clcd_putch:	
  5161                           ;psect for function _clcd_putch
  5162                           
  5163                           
  5164                           ;incstack = 0
  5165                           ; Regs used in _clcd_putch: [wreg+status,2+status,0+pclath+cstack]
  5166                           ;clcd_putch@data stored from wreg
  5167     0D50  1283               	bcf	3,5	;RP0=0, select bank0
  5168     0D51  1303               	bcf	3,6	;RP1=0, select bank0
  5169     0D52  00A4               	movwf	clcd_putch@data
  5170     0D53                     l2679:
  5171                           
  5172                           ;clcd.c: 55: void clcd_putch(const char data, unsigned char addr);clcd.c: 56: {;clcd.c: 
      +                          57:     clcd_write(addr, 0);
  5173     0D53  01F2               	clrf	clcd_write@mode
  5174     0D54  0878               	movf	clcd_putch@addr,w
  5175     0D55  120A  158A  2654  120A  158A  	fcall	_clcd_write
  5176                           
  5177                           ;clcd.c: 58:     clcd_write(data, 1);
  5178     0D5A  01F2               	clrf	clcd_write@mode
  5179     0D5B  0AF2               	incf	clcd_write@mode,f
  5180     0D5C  1283               	bcf	3,5	;RP0=0, select bank0
  5181     0D5D  1303               	bcf	3,6	;RP1=0, select bank0
  5182     0D5E  0824               	movf	clcd_putch@data,w
  5183     0D5F  120A  158A  2654  120A  158A  	fcall	_clcd_write
  5184     0D64                     l26:
  5185     0D64  0008               	return
  5186     0D65                     __end_of_clcd_putch:
  5187                           
  5188                           	psect	text23
  5189     0DF0                     __ptext23:	
  5190 ;; *************** function _clcd_print *****************
  5191 ;; Defined at:
  5192 ;;		line 61 in file "clcd.c"
  5193 ;; Parameters:    Size  Location     Type
  5194 ;;  str             2    6[COMMON] PTR const unsigned char 
  5195 ;;		 -> STR_24(12), STR_23(12), STR_22(17), STR_21(8), 
  5196 ;;		 -> STR_20(14), STR_19(17), STR_18(12), STR_17(5), 
  5197 ;;		 -> STR_16(6), STR_15(6), STR_14(8), STR_13(3), 
  5198 ;;		 -> STR_12(3), STR_11(17), STR_10(17), STR_9(17), 
  5199 ;;		 -> STR_8(8), STR_7(17), STR_6(13), STR_5(16), 
  5200 ;;		 -> STR_4(16), STR_3(6), STR_2(15), STR_1(12), 
  5201 ;;  addr            1    8[COMMON] unsigned char 
  5202 ;; Auto vars:     Size  Location     Type
  5203 ;;		None
  5204 ;; Return value:  Size  Location     Type
  5205 ;;                  1    wreg      void 
  5206 ;; Registers used:
  5207 ;;		wreg, fsr0l, fsr0h, status,2, status,0, btemp+1, pclath, cstack
  5208 ;; Tracked objects:
  5209 ;;		On entry : 0/0
  5210 ;;		On exit  : 0/0
  5211 ;;		Unchanged: 0/0
  5212 ;; Data sizes:     COMMON   BANK0   BANK1   BANK3   BANK2
  5213 ;;      Params:         3       0       0       0       0
  5214 ;;      Locals:         0       0       0       0       0
  5215 ;;      Temps:          0       0       0       0       0
  5216 ;;      Totals:         3       0       0       0       0
  5217 ;;Total ram usage:        3 bytes
  5218 ;; Hardware stack levels used: 1
  5219 ;; Hardware stack levels required when called: 2
  5220 ;; This function calls:
  5221 ;;		_clcd_write
  5222 ;; This function is called by:
  5223 ;;		_main
  5224 ;;		_menu_screen
  5225 ;;		_micro_mode
  5226 ;;		_set_time_screen
  5227 ;;		_operation_mode
  5228 ;;		_set_temp
  5229 ;;		_preheat_screen
  5230 ;; This function uses a non-reentrant model
  5231 ;;
  5232                           
  5233     0DF0                     _clcd_print:	
  5234                           ;psect for function _clcd_print
  5235                           
  5236     0DF0                     l2667:	
  5237                           ;incstack = 0
  5238                           ; Regs used in _clcd_print: [wreg-fsr0h+status,2+status,0+btemp+1+pclath+cstack]
  5239                           
  5240                           
  5241                           ;clcd.c: 61: void clcd_print(const char *str, unsigned char addr);clcd.c: 62: {;clcd.c: 
      +                          63:     clcd_write(addr, 0);
  5242     0DF0  01F2               	clrf	clcd_write@mode
  5243     0DF1  0878               	movf	clcd_print@addr,w
  5244     0DF2  120A  158A  2654  120A  158A  	fcall	_clcd_write
  5245                           
  5246                           ;clcd.c: 65:     while (*str != '\0')
  5247     0DF7  2E0E               	goto	l2673
  5248     0DF8                     l2669:
  5249                           
  5250                           ;clcd.c: 66:     {;clcd.c: 67:         clcd_write(*str, 1);
  5251     0DF8  01F2               	clrf	clcd_write@mode
  5252     0DF9  0AF2               	incf	clcd_write@mode,f
  5253     0DFA  0877               	movf	clcd_print@str+1,w
  5254     0DFB  00FF               	movwf	btemp+1
  5255     0DFC  0876               	movf	clcd_print@str,w
  5256     0DFD  0084               	movwf	4
  5257     0DFE  120A  158A  2000  120A  158A  	fcall	stringtab
  5258     0E03  120A  158A  2654  120A  158A  	fcall	_clcd_write
  5259     0E08                     l2671:
  5260                           
  5261                           ;clcd.c: 68:         str++;
  5262     0E08  3001               	movlw	1
  5263     0E09  07F6               	addwf	clcd_print@str,f
  5264     0E0A  1803               	skipnc
  5265     0E0B  0AF7               	incf	clcd_print@str+1,f
  5266     0E0C  3000               	movlw	0
  5267     0E0D  07F7               	addwf	clcd_print@str+1,f
  5268     0E0E                     l2673:
  5269                           
  5270                           ;clcd.c: 65:     while (*str != '\0')
  5271     0E0E  0877               	movf	clcd_print@str+1,w
  5272     0E0F  1283               	bcf	3,5	;RP0=0, select bank0
  5273     0E10  1303               	bcf	3,6	;RP1=0, select bank0
  5274     0E11  00FF               	movwf	btemp+1
  5275     0E12  0876               	movf	clcd_print@str,w
  5276     0E13  0084               	movwf	4
  5277     0E14  120A  158A  2000  120A  158A  	fcall	stringtab
  5278     0E19  3A00               	xorlw	0
  5279     0E1A  1D03               	skipz
  5280     0E1B  2E1D               	goto	u2451
  5281     0E1C  2E1E               	goto	u2450
  5282     0E1D                     u2451:
  5283     0E1D  2DF8               	goto	l2669
  5284     0E1E                     u2450:
  5285     0E1E                     l32:
  5286     0E1E  0008               	return
  5287     0E1F                     __end_of_clcd_print:
  5288                           
  5289                           	psect	text24
  5290     0E54                     __ptext24:	
  5291 ;; *************** function _clcd_write *****************
  5292 ;; Defined at:
  5293 ;;		line 3 in file "clcd.c"
  5294 ;; Parameters:    Size  Location     Type
  5295 ;;  byte            1    wreg     unsigned char 
  5296 ;;  mode            1    2[COMMON] unsigned char 
  5297 ;; Auto vars:     Size  Location     Type
  5298 ;;  byte            1    5[COMMON] unsigned char 
  5299 ;; Return value:  Size  Location     Type
  5300 ;;                  1    wreg      void 
  5301 ;; Registers used:
  5302 ;;		wreg, status,2, status,0
  5303 ;; Tracked objects:
  5304 ;;		On entry : 0/0
  5305 ;;		On exit  : 0/0
  5306 ;;		Unchanged: 0/0
  5307 ;; Data sizes:     COMMON   BANK0   BANK1   BANK3   BANK2
  5308 ;;      Params:         1       0       0       0       0
  5309 ;;      Locals:         1       0       0       0       0
  5310 ;;      Temps:          2       0       0       0       0
  5311 ;;      Totals:         4       0       0       0       0
  5312 ;;Total ram usage:        4 bytes
  5313 ;; Hardware stack levels used: 1
  5314 ;; Hardware stack levels required when called: 1
  5315 ;; This function calls:
  5316 ;;		Nothing
  5317 ;; This function is called by:
  5318 ;;		_init_display_controller
  5319 ;;		_clcd_putch
  5320 ;;		_clcd_print
  5321 ;;		_clear_display
  5322 ;; This function uses a non-reentrant model
  5323 ;;
  5324                           
  5325     0E54                     _clcd_write:	
  5326                           ;psect for function _clcd_write
  5327                           
  5328                           
  5329                           ;incstack = 0
  5330                           ; Regs used in _clcd_write: [wreg+status,2+status,0]
  5331                           ;clcd_write@byte stored from wreg
  5332     0E54  00F5               	movwf	clcd_write@byte
  5333     0E55                     l2647:
  5334                           
  5335                           ;clcd.c: 3:  void clcd_write(unsigned char byte, unsigned char mode);clcd.c: 4: {;clcd.c
      +                          : 5:     RE2 =(__bit) mode;
  5336     0E55  1872               	btfsc	clcd_write@mode,0
  5337     0E56  2E58               	goto	u2421
  5338     0E57  2E5C               	goto	u2420
  5339     0E58                     u2421:
  5340     0E58  1283               	bcf	3,5	;RP0=0, select bank0
  5341     0E59  1303               	bcf	3,6	;RP1=0, select bank0
  5342     0E5A  1509               	bsf	9,2	;volatile
  5343     0E5B  2E5F               	goto	u2434
  5344     0E5C                     u2420:
  5345     0E5C  1283               	bcf	3,5	;RP0=0, select bank0
  5346     0E5D  1303               	bcf	3,6	;RP1=0, select bank0
  5347     0E5E  1109               	bcf	9,2	;volatile
  5348     0E5F                     u2434:
  5349     0E5F                     l2649:
  5350                           
  5351                           ;clcd.c: 7:     PORTD = byte & 0xF0;
  5352     0E5F  0875               	movf	clcd_write@byte,w
  5353     0E60  39F0               	andlw	240
  5354     0E61  0088               	movwf	8	;volatile
  5355     0E62                     l2651:
  5356                           
  5357                           ;clcd.c: 8:     RE1 = 1;
  5358     0E62  1489               	bsf	9,1	;volatile
  5359     0E63                     l2653:
  5360                           
  5361                           ;clcd.c: 9:     _delay((unsigned long)((100)*(20000000/4000000.0)));
  5362     0E63  30A6               	movlw	166
  5363     0E64  00F3               	movwf	??_clcd_write
  5364     0E65                     u3127:
  5365     0E65  0BF3               	decfsz	??_clcd_write,f
  5366     0E66  2E65               	goto	u3127
  5367     0E67  0000               	nop
  5368     0E68                     l2655:
  5369                           
  5370                           ;clcd.c: 10:     RE1 = 0;
  5371     0E68  1283               	bcf	3,5	;RP0=0, select bank0
  5372     0E69  1303               	bcf	3,6	;RP1=0, select bank0
  5373     0E6A  1089               	bcf	9,1	;volatile
  5374     0E6B                     l2657:
  5375                           
  5376                           ;clcd.c: 12:     PORTD = (byte & 0x0F) << (unsigned char) 4;
  5377     0E6B  0875               	movf	clcd_write@byte,w
  5378     0E6C  390F               	andlw	15
  5379     0E6D  00F3               	movwf	??_clcd_write
  5380     0E6E  3003               	movlw	3
  5381     0E6F                     u2445:
  5382     0E6F  1003               	clrc
  5383     0E70  0DF3               	rlf	??_clcd_write,f
  5384     0E71  3EFF               	addlw	-1
  5385     0E72  1D03               	skipz
  5386     0E73  2E6F               	goto	u2445
  5387     0E74  1003               	clrc
  5388     0E75  0D73               	rlf	??_clcd_write,w
  5389     0E76  0088               	movwf	8	;volatile
  5390     0E77                     l2659:
  5391                           
  5392                           ;clcd.c: 13:     RE1 = 1;
  5393     0E77  1489               	bsf	9,1	;volatile
  5394     0E78                     l2661:
  5395                           
  5396                           ;clcd.c: 14:     _delay((unsigned long)((100)*(20000000/4000000.0)));
  5397     0E78  30A6               	movlw	166
  5398     0E79  00F3               	movwf	??_clcd_write
  5399     0E7A                     u3137:
  5400     0E7A  0BF3               	decfsz	??_clcd_write,f
  5401     0E7B  2E7A               	goto	u3137
  5402     0E7C  0000               	nop
  5403     0E7D                     l2663:
  5404                           
  5405                           ;clcd.c: 15:     RE1 = 0;
  5406     0E7D  1283               	bcf	3,5	;RP0=0, select bank0
  5407     0E7E  1303               	bcf	3,6	;RP1=0, select bank0
  5408     0E7F  1089               	bcf	9,1	;volatile
  5409     0E80                     l2665:
  5410                           
  5411                           ;clcd.c: 17:     _delay((unsigned long)((4100)*(20000000/4000000.0)));
  5412     0E80  301B               	movlw	27
  5413     0E81  00F4               	movwf	??_clcd_write+1
  5414     0E82  309E               	movlw	158
  5415     0E83  00F3               	movwf	??_clcd_write
  5416     0E84                     u3147:
  5417     0E84  0BF3               	decfsz	??_clcd_write,f
  5418     0E85  2E84               	goto	u3147
  5419     0E86  0BF4               	decfsz	??_clcd_write+1,f
  5420     0E87  2E84               	goto	u3147
  5421     0E88  0000               	nop
  5422     0E89                     l17:
  5423     0E89  0008               	return
  5424     0E8A                     __end_of_clcd_write:
  5425                           
  5426                           	psect	text25
  5427     0F46                     __ptext25:	
  5428 ;; *************** function ___awmod *****************
  5429 ;; Defined at:
  5430 ;;		line 5 in file "C:\Program Files\Microchip\xc8\v3.00\pic\sources\c99\common\awmod.c"
  5431 ;; Parameters:    Size  Location     Type
  5432 ;;  divisor         2    2[COMMON] int 
  5433 ;;  dividend        2    4[COMMON] int 
  5434 ;; Auto vars:     Size  Location     Type
  5435 ;;  sign            1    7[COMMON] unsigned char 
  5436 ;;  counter         1    6[COMMON] unsigned char 
  5437 ;; Return value:  Size  Location     Type
  5438 ;;                  2    2[COMMON] int 
  5439 ;; Registers used:
  5440 ;;		wreg, status,2, status,0
  5441 ;; Tracked objects:
  5442 ;;		On entry : 0/0
  5443 ;;		On exit  : 0/0
  5444 ;;		Unchanged: 0/0
  5445 ;; Data sizes:     COMMON   BANK0   BANK1   BANK3   BANK2
  5446 ;;      Params:         4       0       0       0       0
  5447 ;;      Locals:         2       0       0       0       0
  5448 ;;      Temps:          0       0       0       0       0
  5449 ;;      Totals:         6       0       0       0       0
  5450 ;;Total ram usage:        6 bytes
  5451 ;; Hardware stack levels used: 1
  5452 ;; Hardware stack levels required when called: 1
  5453 ;; This function calls:
  5454 ;;		Nothing
  5455 ;; This function is called by:
  5456 ;;		_operation_mode
  5457 ;;		_preheat_screen
  5458 ;; This function uses a non-reentrant model
  5459 ;;
  5460                           
  5461     0F46                     ___awmod:	
  5462                           ;psect for function ___awmod
  5463                           
  5464     0F46                     l2255:	
  5465                           ;incstack = 0
  5466                           ; Regs used in ___awmod: [wreg+status,2+status,0]
  5467                           
  5468     0F46  01F7               	clrf	___awmod@sign
  5469     0F47                     l2257:
  5470     0F47  1FF5               	btfss	___awmod@dividend+1,7
  5471     0F48  2F4A               	goto	u1921
  5472     0F49  2F4B               	goto	u1920
  5473     0F4A                     u1921:
  5474     0F4A  2F52               	goto	l2263
  5475     0F4B                     u1920:
  5476     0F4B                     l2259:
  5477     0F4B  09F4               	comf	___awmod@dividend,f
  5478     0F4C  09F5               	comf	___awmod@dividend+1,f
  5479     0F4D  0AF4               	incf	___awmod@dividend,f
  5480     0F4E  1903               	skipnz
  5481     0F4F  0AF5               	incf	___awmod@dividend+1,f
  5482     0F50                     l2261:
  5483     0F50  3001               	movlw	1
  5484     0F51  00F7               	movwf	___awmod@sign
  5485     0F52                     l2263:
  5486     0F52  1FF3               	btfss	___awmod@divisor+1,7
  5487     0F53  2F55               	goto	u1931
  5488     0F54  2F56               	goto	u1930
  5489     0F55                     u1931:
  5490     0F55  2F5B               	goto	l2267
  5491     0F56                     u1930:
  5492     0F56                     l2265:
  5493     0F56  09F2               	comf	___awmod@divisor,f
  5494     0F57  09F3               	comf	___awmod@divisor+1,f
  5495     0F58  0AF2               	incf	___awmod@divisor,f
  5496     0F59  1903               	skipnz
  5497     0F5A  0AF3               	incf	___awmod@divisor+1,f
  5498     0F5B                     l2267:
  5499     0F5B  0872               	movf	___awmod@divisor,w
  5500     0F5C  0473               	iorwf	___awmod@divisor+1,w
  5501     0F5D  1903               	btfsc	3,2
  5502     0F5E  2F60               	goto	u1941
  5503     0F5F  2F61               	goto	u1940
  5504     0F60                     u1941:
  5505     0F60  2F8E               	goto	l2285
  5506     0F61                     u1940:
  5507     0F61                     l2269:
  5508     0F61  3001               	movlw	1
  5509     0F62  00F6               	movwf	___awmod@counter
  5510     0F63  2F6D               	goto	l2275
  5511     0F64                     l2271:
  5512     0F64  3001               	movlw	1
  5513     0F65                     u1955:
  5514     0F65  1003               	clrc
  5515     0F66  0DF2               	rlf	___awmod@divisor,f
  5516     0F67  0DF3               	rlf	___awmod@divisor+1,f
  5517     0F68  3EFF               	addlw	-1
  5518     0F69  1D03               	skipz
  5519     0F6A  2F65               	goto	u1955
  5520     0F6B                     l2273:
  5521     0F6B  3001               	movlw	1
  5522     0F6C  07F6               	addwf	___awmod@counter,f
  5523     0F6D                     l2275:
  5524     0F6D  1FF3               	btfss	___awmod@divisor+1,7
  5525     0F6E  2F70               	goto	u1961
  5526     0F6F  2F71               	goto	u1960
  5527     0F70                     u1961:
  5528     0F70  2F64               	goto	l2271
  5529     0F71                     u1960:
  5530     0F71                     l2277:
  5531     0F71  0873               	movf	___awmod@divisor+1,w
  5532     0F72  0275               	subwf	___awmod@dividend+1,w
  5533     0F73  1D03               	skipz
  5534     0F74  2F77               	goto	u1975
  5535     0F75  0872               	movf	___awmod@divisor,w
  5536     0F76  0274               	subwf	___awmod@dividend,w
  5537     0F77                     u1975:
  5538     0F77  1C03               	skipc
  5539     0F78  2F7A               	goto	u1971
  5540     0F79  2F7B               	goto	u1970
  5541     0F7A                     u1971:
  5542     0F7A  2F81               	goto	l2281
  5543     0F7B                     u1970:
  5544     0F7B                     l2279:
  5545     0F7B  0872               	movf	___awmod@divisor,w
  5546     0F7C  02F4               	subwf	___awmod@dividend,f
  5547     0F7D  0873               	movf	___awmod@divisor+1,w
  5548     0F7E  1C03               	skipc
  5549     0F7F  03F5               	decf	___awmod@dividend+1,f
  5550     0F80  02F5               	subwf	___awmod@dividend+1,f
  5551     0F81                     l2281:
  5552     0F81  3001               	movlw	1
  5553     0F82                     u1985:
  5554     0F82  1003               	clrc
  5555     0F83  0CF3               	rrf	___awmod@divisor+1,f
  5556     0F84  0CF2               	rrf	___awmod@divisor,f
  5557     0F85  3EFF               	addlw	-1
  5558     0F86  1D03               	skipz
  5559     0F87  2F82               	goto	u1985
  5560     0F88                     l2283:
  5561     0F88  3001               	movlw	1
  5562     0F89  02F6               	subwf	___awmod@counter,f
  5563     0F8A  1D03               	btfss	3,2
  5564     0F8B  2F8D               	goto	u1991
  5565     0F8C  2F8E               	goto	u1990
  5566     0F8D                     u1991:
  5567     0F8D  2F71               	goto	l2277
  5568     0F8E                     u1990:
  5569     0F8E                     l2285:
  5570     0F8E  0877               	movf	___awmod@sign,w
  5571     0F8F  1903               	btfsc	3,2
  5572     0F90  2F92               	goto	u2001
  5573     0F91  2F93               	goto	u2000
  5574     0F92                     u2001:
  5575     0F92  2F98               	goto	l2289
  5576     0F93                     u2000:
  5577     0F93                     l2287:
  5578     0F93  09F4               	comf	___awmod@dividend,f
  5579     0F94  09F5               	comf	___awmod@dividend+1,f
  5580     0F95  0AF4               	incf	___awmod@dividend,f
  5581     0F96  1903               	skipnz
  5582     0F97  0AF5               	incf	___awmod@dividend+1,f
  5583     0F98                     l2289:
  5584     0F98  0875               	movf	___awmod@dividend+1,w
  5585     0F99  00F3               	movwf	?___awmod+1
  5586     0F9A  0874               	movf	___awmod@dividend,w
  5587     0F9B  00F2               	movwf	?___awmod
  5588     0F9C                     l583:
  5589     0F9C  0008               	return
  5590     0F9D                     __end_of___awmod:
  5591                           
  5592                           	psect	text26
  5593     0479                     __ptext26:	
  5594 ;; *************** function ___awdiv *****************
  5595 ;; Defined at:
  5596 ;;		line 5 in file "C:\Program Files\Microchip\xc8\v3.00\pic\sources\c99\common\awdiv.c"
  5597 ;; Parameters:    Size  Location     Type
  5598 ;;  divisor         2    2[COMMON] int 
  5599 ;;  dividend        2    4[COMMON] int 
  5600 ;; Auto vars:     Size  Location     Type
  5601 ;;  quotient        2    2[BANK0 ] int 
  5602 ;;  sign            1    1[BANK0 ] unsigned char 
  5603 ;;  counter         1    0[BANK0 ] unsigned char 
  5604 ;; Return value:  Size  Location     Type
  5605 ;;                  2    2[COMMON] int 
  5606 ;; Registers used:
  5607 ;;		wreg, status,2, status,0
  5608 ;; Tracked objects:
  5609 ;;		On entry : 0/0
  5610 ;;		On exit  : 0/0
  5611 ;;		Unchanged: 0/0
  5612 ;; Data sizes:     COMMON   BANK0   BANK1   BANK3   BANK2
  5613 ;;      Params:         4       0       0       0       0
  5614 ;;      Locals:         0       4       0       0       0
  5615 ;;      Temps:          0       0       0       0       0
  5616 ;;      Totals:         4       4       0       0       0
  5617 ;;Total ram usage:        8 bytes
  5618 ;; Hardware stack levels used: 1
  5619 ;; Hardware stack levels required when called: 1
  5620 ;; This function calls:
  5621 ;;		Nothing
  5622 ;; This function is called by:
  5623 ;;		_operation_mode
  5624 ;;		_preheat_screen
  5625 ;; This function uses a non-reentrant model
  5626 ;;
  5627                           
  5628     0479                     ___awdiv:	
  5629                           ;psect for function ___awdiv
  5630                           
  5631     0479                     l2695:	
  5632                           ;incstack = 0
  5633                           ; Regs used in ___awdiv: [wreg+status,2+status,0]
  5634                           
  5635     0479  1283               	bcf	3,5	;RP0=0, select bank0
  5636     047A  1303               	bcf	3,6	;RP1=0, select bank0
  5637     047B  01A1               	clrf	___awdiv@sign
  5638     047C                     l2697:
  5639     047C  1FF3               	btfss	___awdiv@divisor+1,7
  5640     047D  2C7F               	goto	u2471
  5641     047E  2C80               	goto	u2470
  5642     047F                     u2471:
  5643     047F  2C87               	goto	l2703
  5644     0480                     u2470:
  5645     0480                     l2699:
  5646     0480  09F2               	comf	___awdiv@divisor,f
  5647     0481  09F3               	comf	___awdiv@divisor+1,f
  5648     0482  0AF2               	incf	___awdiv@divisor,f
  5649     0483  1903               	skipnz
  5650     0484  0AF3               	incf	___awdiv@divisor+1,f
  5651     0485                     l2701:
  5652     0485  3001               	movlw	1
  5653     0486  00A1               	movwf	___awdiv@sign
  5654     0487                     l2703:
  5655     0487  1FF5               	btfss	___awdiv@dividend+1,7
  5656     0488  2C8A               	goto	u2481
  5657     0489  2C8B               	goto	u2480
  5658     048A                     u2481:
  5659     048A  2C92               	goto	l2709
  5660     048B                     u2480:
  5661     048B                     l2705:
  5662     048B  09F4               	comf	___awdiv@dividend,f
  5663     048C  09F5               	comf	___awdiv@dividend+1,f
  5664     048D  0AF4               	incf	___awdiv@dividend,f
  5665     048E  1903               	skipnz
  5666     048F  0AF5               	incf	___awdiv@dividend+1,f
  5667     0490                     l2707:
  5668     0490  3001               	movlw	1
  5669     0491  06A1               	xorwf	___awdiv@sign,f
  5670     0492                     l2709:
  5671     0492  01A2               	clrf	___awdiv@quotient
  5672     0493  01A3               	clrf	___awdiv@quotient+1
  5673     0494                     l2711:
  5674     0494  0872               	movf	___awdiv@divisor,w
  5675     0495  0473               	iorwf	___awdiv@divisor+1,w
  5676     0496  1903               	btfsc	3,2
  5677     0497  2C99               	goto	u2491
  5678     0498  2C9A               	goto	u2490
  5679     0499                     u2491:
  5680     0499  2CCF               	goto	l2731
  5681     049A                     u2490:
  5682     049A                     l2713:
  5683     049A  3001               	movlw	1
  5684     049B  00A0               	movwf	___awdiv@counter
  5685     049C  2CA6               	goto	l2719
  5686     049D                     l2715:
  5687     049D  3001               	movlw	1
  5688     049E                     u2505:
  5689     049E  1003               	clrc
  5690     049F  0DF2               	rlf	___awdiv@divisor,f
  5691     04A0  0DF3               	rlf	___awdiv@divisor+1,f
  5692     04A1  3EFF               	addlw	-1
  5693     04A2  1D03               	skipz
  5694     04A3  2C9E               	goto	u2505
  5695     04A4                     l2717:
  5696     04A4  3001               	movlw	1
  5697     04A5  07A0               	addwf	___awdiv@counter,f
  5698     04A6                     l2719:
  5699     04A6  1FF3               	btfss	___awdiv@divisor+1,7
  5700     04A7  2CA9               	goto	u2511
  5701     04A8  2CAA               	goto	u2510
  5702     04A9                     u2511:
  5703     04A9  2C9D               	goto	l2715
  5704     04AA                     u2510:
  5705     04AA                     l2721:
  5706     04AA  3001               	movlw	1
  5707     04AB                     u2525:
  5708     04AB  1003               	clrc
  5709     04AC  0DA2               	rlf	___awdiv@quotient,f
  5710     04AD  0DA3               	rlf	___awdiv@quotient+1,f
  5711     04AE  3EFF               	addlw	-1
  5712     04AF  1D03               	skipz
  5713     04B0  2CAB               	goto	u2525
  5714     04B1  0873               	movf	___awdiv@divisor+1,w
  5715     04B2  0275               	subwf	___awdiv@dividend+1,w
  5716     04B3  1D03               	skipz
  5717     04B4  2CB7               	goto	u2535
  5718     04B5  0872               	movf	___awdiv@divisor,w
  5719     04B6  0274               	subwf	___awdiv@dividend,w
  5720     04B7                     u2535:
  5721     04B7  1C03               	skipc
  5722     04B8  2CBA               	goto	u2531
  5723     04B9  2CBB               	goto	u2530
  5724     04BA                     u2531:
  5725     04BA  2CC2               	goto	l2727
  5726     04BB                     u2530:
  5727     04BB                     l2723:
  5728     04BB  0872               	movf	___awdiv@divisor,w
  5729     04BC  02F4               	subwf	___awdiv@dividend,f
  5730     04BD  0873               	movf	___awdiv@divisor+1,w
  5731     04BE  1C03               	skipc
  5732     04BF  03F5               	decf	___awdiv@dividend+1,f
  5733     04C0  02F5               	subwf	___awdiv@dividend+1,f
  5734     04C1                     l2725:
  5735     04C1  1422               	bsf	___awdiv@quotient,0
  5736     04C2                     l2727:
  5737     04C2  3001               	movlw	1
  5738     04C3                     u2545:
  5739     04C3  1003               	clrc
  5740     04C4  0CF3               	rrf	___awdiv@divisor+1,f
  5741     04C5  0CF2               	rrf	___awdiv@divisor,f
  5742     04C6  3EFF               	addlw	-1
  5743     04C7  1D03               	skipz
  5744     04C8  2CC3               	goto	u2545
  5745     04C9                     l2729:
  5746     04C9  3001               	movlw	1
  5747     04CA  02A0               	subwf	___awdiv@counter,f
  5748     04CB  1D03               	btfss	3,2
  5749     04CC  2CCE               	goto	u2551
  5750     04CD  2CCF               	goto	u2550
  5751     04CE                     u2551:
  5752     04CE  2CAA               	goto	l2721
  5753     04CF                     u2550:
  5754     04CF                     l2731:
  5755     04CF  0821               	movf	___awdiv@sign,w
  5756     04D0  1903               	btfsc	3,2
  5757     04D1  2CD3               	goto	u2561
  5758     04D2  2CD4               	goto	u2560
  5759     04D3                     u2561:
  5760     04D3  2CD9               	goto	l2735
  5761     04D4                     u2560:
  5762     04D4                     l2733:
  5763     04D4  09A2               	comf	___awdiv@quotient,f
  5764     04D5  09A3               	comf	___awdiv@quotient+1,f
  5765     04D6  0AA2               	incf	___awdiv@quotient,f
  5766     04D7  1903               	skipnz
  5767     04D8  0AA3               	incf	___awdiv@quotient+1,f
  5768     04D9                     l2735:
  5769     04D9  0823               	movf	___awdiv@quotient+1,w
  5770     04DA  00F3               	movwf	?___awdiv+1
  5771     04DB  0822               	movf	___awdiv@quotient,w
  5772     04DC  00F2               	movwf	?___awdiv
  5773     04DD                     l570:
  5774     04DD  0008               	return
  5775     04DE                     __end_of___awdiv:
  5776                           
  5777                           	psect	text27
  5778     0DC3                     __ptext27:	
  5779 ;; *************** function _isr *****************
  5780 ;; Defined at:
  5781 ;;		line 5 in file "isr.c"
  5782 ;; Parameters:    Size  Location     Type
  5783 ;;		None
  5784 ;; Auto vars:     Size  Location     Type
  5785 ;;		None
  5786 ;; Return value:  Size  Location     Type
  5787 ;;                  1    wreg      void 
  5788 ;; Registers used:
  5789 ;;		wreg, status,2, status,0
  5790 ;; Tracked objects:
  5791 ;;		On entry : 0/0
  5792 ;;		On exit  : 0/0
  5793 ;;		Unchanged: 0/0
  5794 ;; Data sizes:     COMMON   BANK0   BANK1   BANK3   BANK2
  5795 ;;      Params:         0       0       0       0       0
  5796 ;;      Locals:         0       0       0       0       0
  5797 ;;      Temps:          2       0       0       0       0
  5798 ;;      Totals:         2       0       0       0       0
  5799 ;;Total ram usage:        2 bytes
  5800 ;; Hardware stack levels used: 1
  5801 ;; This function calls:
  5802 ;;		Nothing
  5803 ;; This function is called by:
  5804 ;;		Interrupt level 1
  5805 ;; This function uses a non-reentrant model
  5806 ;;
  5807                           
  5808     0DC3                     _isr:	
  5809                           ;psect for function _isr
  5810                           
  5811     0DC3                     i1l2099:
  5812                           
  5813                           ;isr.c: 7:     static unsigned int count = 0;;isr.c: 9:     if (TMR2IF == 1)
  5814     0DC3  1283               	bcf	3,5	;RP0=0, select bank0
  5815     0DC4  1303               	bcf	3,6	;RP1=0, select bank0
  5816     0DC5  1C8C               	btfss	12,1	;volatile
  5817     0DC6  2DC8               	goto	u171_21
  5818     0DC7  2DC9               	goto	u171_20
  5819     0DC8                     u171_21:
  5820     0DC8  2DE9               	goto	i1l49
  5821     0DC9                     u171_20:
  5822     0DC9                     i1l2101:
  5823                           
  5824                           ;isr.c: 10:     {;isr.c: 11:         if (++count == 600)
  5825     0DC9  3001               	movlw	1
  5826     0DCA  07CB               	addwf	isr@count,f
  5827     0DCB  1803               	skipnc
  5828     0DCC  0ACC               	incf	isr@count+1,f
  5829     0DCD  3000               	movlw	0
  5830     0DCE  07CC               	addwf	isr@count+1,f
  5831     0DCF  3058               	movlw	88
  5832     0DD0  064B               	xorwf	isr@count,w
  5833     0DD1  3002               	movlw	2
  5834     0DD2  1903               	skipnz
  5835     0DD3  064C               	xorwf	isr@count+1,w
  5836     0DD4  1D03               	btfss	3,2
  5837     0DD5  2DD7               	goto	u172_21
  5838     0DD6  2DD8               	goto	u172_20
  5839     0DD7                     u172_21:
  5840     0DD7  2DE8               	goto	i1l2111
  5841     0DD8                     u172_20:
  5842     0DD8                     i1l2103:
  5843                           
  5844                           ;isr.c: 12:         {;isr.c: 13:             count = 0;
  5845     0DD8  01CB               	clrf	isr@count
  5846     0DD9  01CC               	clrf	isr@count+1
  5847     0DDA                     i1l2105:
  5848                           
  5849                           ;isr.c: 15:             if(time_count>0)
  5850     0DDA  0853               	movf	_time_count,w
  5851     0DDB  1903               	btfsc	3,2
  5852     0DDC  2DDE               	goto	u173_21
  5853     0DDD  2DDF               	goto	u173_20
  5854     0DDE                     u173_21:
  5855     0DDE  2DE1               	goto	i1l47
  5856     0DDF                     u173_20:
  5857     0DDF                     i1l2107:
  5858                           
  5859                           ;isr.c: 16:             {;isr.c: 17:                 time_count--;
  5860     0DDF  3001               	movlw	1
  5861     0DE0  02D3               	subwf	_time_count,f
  5862     0DE1                     i1l47:	
  5863                           ;isr.c: 18:             }
  5864                           
  5865                           
  5866                           ;isr.c: 19:             if(temp_time_count>0)
  5867     0DE1  087A               	movf	_temp_time_count,w
  5868     0DE2  1903               	btfsc	3,2
  5869     0DE3  2DE5               	goto	u174_21
  5870     0DE4  2DE6               	goto	u174_20
  5871     0DE5                     u174_21:
  5872     0DE5  2DE8               	goto	i1l2111
  5873     0DE6                     u174_20:
  5874     0DE6                     i1l2109:
  5875                           
  5876                           ;isr.c: 20:             {;isr.c: 21:                 temp_time_count--;
  5877     0DE6  3001               	movlw	1
  5878     0DE7  02FA               	subwf	_temp_time_count,f
  5879     0DE8                     i1l2111:
  5880                           
  5881                           ;isr.c: 25:         TMR2IF = 0;
  5882     0DE8  108C               	bcf	12,1	;volatile
  5883     0DE9                     i1l49:
  5884     0DE9  0871               	movf	??_isr+1,w
  5885     0DEA  008A               	movwf	10
  5886     0DEB  0E70               	swapf	??_isr,w
  5887     0DEC  0083               	movwf	3
  5888     0DED  0EFE               	swapf	btemp,f
  5889     0DEE  0E7E               	swapf	btemp,w
  5890     0DEF  0009               	retfie
  5891     0DF0                     __end_of_isr:
  5892     0002                     ___latbits      equ	2
  5893     007E                     btemp           set	126	;btemp
  5894     007E                     wtemp0          set	126
  5895                           
  5896                           	psect	intentry
  5897     0004                     __pintentry:	
  5898                           ;incstack = 0
  5899                           ; Regs used in _isr: [wreg+status,2+status,0]
  5900                           
  5901     0004                     interrupt_function:
  5902     007E                     saved_w         set	btemp
  5903     0004  00FE               	movwf	btemp
  5904     0005  0E03               	swapf	3,w
  5905     0006  00F0               	movwf	??_isr
  5906     0007  080A               	movf	10,w
  5907     0008  00F1               	movwf	??_isr+1
  5908     0009  120A  158A  2DC3   	ljmp	_isr
  5909                           
  5910                           	psect	idloc
  5911                           
  5912                           ;Config register IDLOC0 @ 0x2000
  5913                           ;	unspecified, using default values
  5914     2000                     	org	8192
  5915     2000  3FFF               	dw	16383
  5916                           
  5917                           ;Config register IDLOC1 @ 0x2001
  5918                           ;	unspecified, using default values
  5919     2001                     	org	8193
  5920     2001  3FFF               	dw	16383
  5921                           
  5922                           ;Config register IDLOC2 @ 0x2002
  5923                           ;	unspecified, using default values
  5924     2002                     	org	8194
  5925     2002  3FFF               	dw	16383
  5926                           
  5927                           ;Config register IDLOC3 @ 0x2003
  5928                           ;	unspecified, using default values
  5929     2003                     	org	8195
  5930     2003  3FFF               	dw	16383
  5931                           
  5932                           	psect	config
  5933                           
  5934                           ;Config register CONFIG @ 0x2007
  5935                           ;	Oscillator Selection bits
  5936                           ;	FOSC = 0x3, unprogrammed default
  5937                           ;	Watchdog Timer Enable bit
  5938                           ;	WDTE = OFF, WDT disabled
  5939                           ;	Power-up Timer Enable bit
  5940                           ;	PWRTE = 0x1, unprogrammed default
  5941                           ;	Brown-out Reset Enable bit
  5942                           ;	BOREN = 0x1, unprogrammed default
  5943                           ;	Low-Voltage (Single-Supply) In-Circuit Serial Programming Enable bit
  5944                           ;	LVP = 0x1, unprogrammed default
  5945                           ;	Data EEPROM Memory Code Protection bit
  5946                           ;	CPD = 0x1, unprogrammed default
  5947                           ;	Flash Program Memory Write Enable bits
  5948                           ;	WRT = 0x3, unprogrammed default
  5949                           ;	In-Circuit Debugger Mode bit
  5950                           ;	DEBUG = 0x1, unprogrammed default
  5951                           ;	Flash Program Memory Code Protection bit
  5952                           ;	CP = 0x1, unprogrammed default
  5953     2007                     	org	8199
  5954     2007  3FFB               	dw	16379

Data Sizes:
    Strings     271
    Constant    0
    Data        1
    BSS         25
    Persistent  0
    Stack       0

Auto Spaces:
    Space          Size  Autos    Used
    COMMON           14      9      12
    BANK0            80     43      66
    BANK1            80      0       0
    BANK3            96      0       0
    BANK2            96      0       0

Pointer List with Targets:

    clcd_print@str	PTR const unsigned char  size(2) Largest target is 17
		 -> STR_1(CODE[12]), STR_10(CODE[17]), STR_11(CODE[17]), STR_12(CODE[3]), 
		 -> STR_13(CODE[3]), STR_14(CODE[8]), STR_15(CODE[6]), STR_16(CODE[6]), 
		 -> STR_17(CODE[5]), STR_18(CODE[12]), STR_19(CODE[17]), STR_2(CODE[15]), 
		 -> STR_20(CODE[14]), STR_21(CODE[8]), STR_22(CODE[17]), STR_23(CODE[12]), 
		 -> STR_24(CODE[12]), STR_3(CODE[6]), STR_4(CODE[16]), STR_5(CODE[16]), 
		 -> STR_6(CODE[13]), STR_7(CODE[17]), STR_8(CODE[8]), STR_9(CODE[17]), 

    memset@dest	PTR void  size(1) Largest target is 8
		 -> temp_arr(BANK0[6]), time_arr(BANK0[8]), 

    memset@p	PTR unsigned char  size(1) Largest target is 8
		 -> temp_arr(BANK0[6]), time_arr(BANK0[8]), 

    sp__memset	PTR void  size(1) Largest target is 8
		 -> temp_arr(BANK0[6]), time_arr(BANK0[8]), 


Critical Paths under _main in COMMON

    _main->_clcd_print
    _main->_clcd_putch
    _micro_mode->_clcd_print
    _init_clcd->_init_display_controller
    _init_display_controller->_clcd_write
    _set_temp->_clcd_print
    _set_temp->_clcd_putch
    _set_time_screen->_clcd_print
    _set_time_screen->_clcd_putch
    _operation_mode->___lwdiv
    _operation_mode->_clcd_print
    _operation_mode->_clcd_putch
    _read_matrix_keypad->_scan_keypad
    _menu_screen->_clcd_print
    _preheat_screen->_clcd_print
    _preheat_screen->_clcd_putch
    _clear_display->_clcd_write
    _clcd_putch->___awmod
    _clcd_print->_clcd_write

Critical Paths under _isr in COMMON

    None.

Critical Paths under _main in BANK0

    _main->_convention_mode
    _start_mode_screen->_operation_mode
    _micro_mode->_set_time_screen
    _convention_mode->_set_temp
    _set_temp->_set_time_screen
    _set_time_screen->_operation_mode
    _operation_mode->_clcd_putch
    _preheat_screen->_clcd_putch
    _clcd_putch->___awdiv

Critical Paths under _isr in BANK0

    None.

Critical Paths under _main in BANK1

    None.

Critical Paths under _isr in BANK1

    None.

Critical Paths under _main in BANK3

    None.

Critical Paths under _isr in BANK3

    None.

Critical Paths under _main in BANK2

    None.

Critical Paths under _isr in BANK2

    None.

Call Graph Tables:

 ---------------------------------------------------------------------------------
 (Depth) Function   	        Calls       Base Space   Used Autos Params    Refs
 ---------------------------------------------------------------------------------
 (0) _main                                                 6     6      0   23265
                                             37 BANK0      6     6      0
                         _clcd_print
                         _clcd_putch
                    _convention_mode
                        _init_config
                        _menu_screen
                         _micro_mode
                 _read_matrix_keypad
                  _start_mode_screen
 ---------------------------------------------------------------------------------
 (1) _start_mode_screen                                    0     0      0    3490
                     _operation_mode
 ---------------------------------------------------------------------------------
 (1) _micro_mode                                           4     4      0    6878
                                             22 BANK0      4     4      0
                         _clcd_print
                      _clear_display
                    _set_time_screen
 ---------------------------------------------------------------------------------
 (1) _init_config                                          0     0      0     252
                          _init_clcd
                 _init_matrix_keypad
                        _init_timer2
 ---------------------------------------------------------------------------------
 (2) _init_timer2                                          0     0      0       0
 ---------------------------------------------------------------------------------
 (2) _init_matrix_keypad                                   0     0      0       0
 ---------------------------------------------------------------------------------
 (2) _init_clcd                                            0     0      0     252
            _init_display_controller
 ---------------------------------------------------------------------------------
 (3) _init_display_controller                              2     2      0     252
                                              6 COMMON     2     2      0
                         _clcd_write
 ---------------------------------------------------------------------------------
 (1) _convention_mode                                      1     1      0    9873
                                             36 BANK0      1     1      0
                      _clear_display
                           _set_temp
 ---------------------------------------------------------------------------------
 (2) _set_temp                                            14    14      0    9552
                                             22 BANK0     14    14      0
                             ___wmul
                         _clcd_print
                         _clcd_putch
                             _memset
                     _preheat_screen
                 _read_matrix_keypad
                    _set_time_screen
 ---------------------------------------------------------------------------------
 (2) _set_time_screen                                      7     7      0    5885
                                             15 BANK0      7     7      0
                             ___bmul
                             ___wmul
                         _clcd_print
                         _clcd_putch
                      _clear_display
                             _memset
                     _operation_mode
                 _read_matrix_keypad
 ---------------------------------------------------------------------------------
 (2) _operation_mode                                      10    10      0    3490
                                              5 BANK0     10    10      0
                            ___awdiv
                            ___awmod
                            ___lwdiv
                            ___lwmod
                         _clcd_print
                         _clcd_putch
                      _clear_display
                        _menu_screen
                 _read_matrix_keypad
 ---------------------------------------------------------------------------------
 (3) _read_matrix_keypad                                   2     2      0     210
                                              4 COMMON     2     2      0
                        _scan_keypad
 ---------------------------------------------------------------------------------
 (4) _scan_keypad                                          2     2      0      92
                                              2 COMMON     2     2      0
 ---------------------------------------------------------------------------------
 (3) _menu_screen                                          4     4      0     993
                                              0 BANK0      4     4      0
                         _clcd_print
                      _clear_display
 ---------------------------------------------------------------------------------
 (3) ___lwmod                                              5     1      4     163
                                              2 COMMON     5     1      4
 ---------------------------------------------------------------------------------
 (3) ___lwdiv                                              7     3      4     166
                                              2 COMMON     7     3      4
 ---------------------------------------------------------------------------------
 (3) _memset                                               6     1      5     108
                                              2 COMMON     6     1      5
 ---------------------------------------------------------------------------------
 (3) ___wmul                                               6     2      4      98
                                              2 COMMON     6     2      4
 ---------------------------------------------------------------------------------
 (3) ___bmul                                               3     2      1     110
                                              2 COMMON     3     2      1
 ---------------------------------------------------------------------------------
 (3) _preheat_screen                                       2     2      0    1490
                                              5 BANK0      2     2      0
                            ___awdiv
                            ___awmod
                         _clcd_print
                         _clcd_putch
                      _clear_display
 ---------------------------------------------------------------------------------
 (4) _clear_display                                        2     2      0     252
                                              6 COMMON     2     2      0
                         _clcd_write
 ---------------------------------------------------------------------------------
 (3) _clcd_putch                                           2     1      1     471
                                              8 COMMON     1     0      1
                                              4 BANK0      1     1      0
                            ___awdiv (ARG)
                            ___awmod (ARG)
                         _clcd_write
 ---------------------------------------------------------------------------------
 (4) _clcd_print                                           3     0      3     672
                                              6 COMMON     3     0      3
                         _clcd_write
 ---------------------------------------------------------------------------------
 (5) _clcd_write                                           4     3      1     252
                                              2 COMMON     4     3      1
 ---------------------------------------------------------------------------------
 (3) ___awmod                                              6     2      4      17
                                              2 COMMON     6     2      4
 ---------------------------------------------------------------------------------
 (3) ___awdiv                                              8     4      4      78
                                              2 COMMON     4     0      4
                                              0 BANK0      4     4      0
 ---------------------------------------------------------------------------------
 Estimated maximum stack depth 5
 ---------------------------------------------------------------------------------
 (Depth) Function   	        Calls       Base Space   Used Autos Params    Refs
 ---------------------------------------------------------------------------------
 (8) _isr                                                  2     2      0       0
                                              0 COMMON     2     2      0
 ---------------------------------------------------------------------------------
 Estimated maximum stack depth 8
 ---------------------------------------------------------------------------------

 Call Graph Graphs:

 _main (ROOT)
   _clcd_print
     _clcd_write
   _clcd_putch
     ___awdiv (ARG)
     ___awmod (ARG)
     _clcd_write (ARG)
   _convention_mode
     _clear_display
       _clcd_write
     _set_temp
       ___wmul
       _clcd_print
       _clcd_putch
       _memset
       _preheat_screen
         ___awdiv
         ___awmod
         _clcd_print
         _clcd_putch
         _clear_display
       _read_matrix_keypad
         _scan_keypad
       _set_time_screen
         ___bmul
         ___wmul
         _clcd_print
         _clcd_putch
         _clear_display
         _memset
         _operation_mode
           ___awdiv
           ___awmod
           ___lwdiv
           ___lwmod
           _clcd_print
           _clcd_putch
           _clear_display
           _menu_screen
             _clcd_print
             _clear_display
           _read_matrix_keypad
         _read_matrix_keypad
   _init_config
     _init_clcd
       _init_display_controller
         _clcd_write
     _init_matrix_keypad
     _init_timer2
   _menu_screen
   _micro_mode
     _clcd_print
     _clear_display
     _set_time_screen
   _read_matrix_keypad
   _start_mode_screen
     _operation_mode

 _isr (ROOT)

Address spaces:
Name               Size   Autos  Total    Usage
BANK3               96      0       0      0.0%
BITBANK3            96      0       0      0.0%
BANK2               96      0       0      0.0%
BITBANK2            96      0       0      0.0%
BANK1               80      0       0      0.0%
BITBANK1            80      0       0      0.0%
BANK0               80     43      66     82.5%
BITBANK0            80      0       0      0.0%
COMMON              14      9      12     85.7%
BITCOMMON           14      0       0      0.0%
DATA                 0      0      78      0.0%
STACK                0      0       0      0.0%


Microchip Technology PIC Macro Assembler V3.00 build 20241204225717 
Symbol Table                                                                                   Sun May 25 22:07:21 2025

                              pc 0002                   ___bmul@product 0073                   clcd_print@addr 0078  
                             l20 0FFF                               l23 0D07                               l32 0E1E  
                             l17 0E89                               l26 0D64                               l84 0D7A  
                             l92 069D                               l94 067D                               l96 0682  
                             l97 0687                               l98 068C                     ___awdiv@sign 0021  
                             fsr 0004              ___wmul@multiplicand 0074               _init_matrix_keypad 0D08  
                            l102 06D1                              l140 0784                              l301 07F2  
                            l141 0705                              l133 0D17                              l150 0729  
                            l142 06FF                              l224 0F45                              l304 0CFC  
                            l241 0131                              l138 06F1                              l307 0D28  
                            l163 076F                              l155 0745                              l147 071B  
                            l139 06F9                              l331 07FF                              l164 0777  
                            l156 074D                              l148 0723                              l252 01D5  
                            l157 0759                              l149 072F                              l261 02F0  
                            l229 0E53                              l166 077D                              l158 0753  
                            l174 0D9D                              l271 0D4F                              l248 016F  
                            l417 0DAA                              l265 02F7                              l443 0D3B  
                            l419 0DC2                              l267 0338                              l259 02D8  
                            l295 0478                              l570 04DD                              l707 0EC1  
                            l583 0F9C                              l697 0F03                              l879 04F6  
                            _GIE 005F                              _RB0 0030                              _RB1 0031  
                            _RB2 0032                              _RC1 0039                              _RD0 0040  
                            _RC2 003A                              _RD1 0041                              _RD2 0042  
                            _RE1 0049                              _RD3 0043                              _RE2 004A  
                            _PR2 0092                              u910 06F1                              u911 06F0  
                            _PSA 040B                              u920 06F7                              u921 06F6  
                            u930 06FD                              u931 06FC                              u940 0703  
                            u941 0702                              u950 071B                              u951 071A  
                            u960 0721                              u961 0720                              u970 0727  
                            u971 0726                              u980 072D                              u981 072C  
                            u990 0745                              u991 0744                              _isr 0DC3  
                 clcd_putch@addr 0078                              fsr0 0004                   clcd_putch@data 0024  
                            indf 0000                     ___awmod@sign 0077              ?_init_matrix_keypad 0070  
                           l3001 0462                             l3003 0469                             l3011 0D6F  
                           l3005 0473                             l3013 0D74                             l3021 0E22  
                           l3015 0D77                             l3007 0D65                             l3031 0E4E  
                           l3023 0E28                             l1601 075D                             l3033 0D3F  
                           l3017 0D78                             l3009 0D6A                             l3025 0E2D  
                           l3041 0CF7                             l1611 077B                             l1603 0761  
                           l3035 0D45                             l3019 0D79                             l3027 0E38  
                           l3051 062E                             l3043 060F                             l2261 0F50  
                           l1701 0E8A                             l1621 0783                             l1605 0775  
                           l1541 06DF                             l3037 0D4A                             l3029 0E47  
                           l3061 0650                             l3045 0614                             l2271 0F64  
                           l2263 0F52                             l2255 0F46                             l1711 0EA0  
                           l1703 0E90                             l1551 06FD                             l1543 06E3  
                           l1631 0D7C                             l3039 0CF3                             l3071 0676  
                           l3063 0654                             l3047 0618                             l2281 0F81  
                           l2273 0F6B                             l2265 0F56                             l2257 0F47  
                           l1713 0EAA                             l1705 0E93                             l1617 0781  
                           l1561 0709                             l1545 06F7                             l1641 0D89  
                           l1633 0D82                             l3081 06A5                             l3065 065A  
                           l3057 0631                             l3049 0623                             l2283 0F88  
                           l2275 0F6D                             l2267 0F5B                             l2259 0F4B  
                           l1811 0DA4                             l1723 04DE                             l1715 0EB0  
                           l1707 0E9A                             l1571 0727                             l1563 070D  
                           l1539 06D9                             l1643 0D8E                             l1635 0D87  
                           l3083 06AC                             l3091 06C0                             l3067 0669  
                           l3059 0645                             l2701 0485                             l2277 0F71  
                           l2269 0F61                             l2285 0F8E                             l1821 0D2A  
                           l1813 0DB1                             l1725 04E1                             l1717 0EB7  
                           l1709 0E9C                             l1581 0733                             l1565 0721  
                           l1557 0703                             l1645 0D93                             l1653 0D95  
                           l3085 06B3                             l3077 068F                             l3069 066D  
                           l2711 0494                             l2703 0487                             l2287 0F93  
                           l2279 0F7B                             l1831 0D3A                             l1823 0D2B  
                           l1815 0DB8                             l1807 0D9E                             l1727 04E6  
                           l1719 0EBD                             l1591 0751                             l1583 0737  
                           l1655 0D9A                             l3087 06BA                             l3079 069E  
                           l2721 04AA                             l2713 049A                             l2705 048B  
                           l2289 0F98                             l1825 0D2F                             l1817 0DBE  
                           l1809 0DA0                             l1729 04E8                             l1681 0ECD  
                           l1585 074B                             l1577 072D                             l1657 0D9C  
                           l2801 0FAC                             l2723 04BB                             l2715 049D  
                           l2731 04CF                             l2707 0490                             l2651 0E62  
                           l1827 0D31                             l1691 0EF1                             l1683 0ED4  
                           l1675 0EC2                             l2811 0FD2                             l2803 0FBC  
                           l2733 04D4                             l2725 04C1                             l2717 04A4  
                           l2709 0492                             l2661 0E78                             l2653 0E63  
                           l1829 0D33                             l1693 0EF2                             l1685 0ED6  
                           l1677 0EC4                             l1597 0757                             l2741 01DA  
                           l2901 01AB                             l2821 0024                             l2813 0FDE  
                           l2805 0FC1                             l2735 04D9                             l2727 04C2  
                           l2719 04A6                             l2663 0E7D                             l2655 0E68  
                           l2647 0E55                             l2671 0E08                             l2911 0795  
                           l1695 0EF9                             l1687 0EDA                             l1679 0ECA  
                           l2751 02A3                             l2743 01DF                             l2903 01CF  
                           l2831 004A                             l2823 0028                             l2815 0FE3  
                           l2807 0FC8                             l2729 04C9                             l2665 0E80  
                           l2657 0E6B                             l2649 0E5F                             l2673 0E0E  
                           l2921 07F1                             l2913 07A0                             l1689 0EEB  
                           l1697 0EFF                             l2681 0F07                             l2761 02CA  
                           l2753 02AE                             l2745 01E2                             l2905 01D0  
                           l2841 0078                             l2833 0055                             l2825 002C  
                           l2817 0FF3                             l2809 0FCB                             l2659 0E77  
                           l2667 0DF0                             l2675 0D18                             l2915 07A2  
                           l2907 0785                             l2691 0F2F                             l2683 0F0D  
                           l2771 02E2                             l2763 02D0                             l2755 02B9  
                           l2747 01EE                             l2739 01D6                             l2851 009B  
                           l2843 007B                             l2835 005D                             l2827 003A  
                           l2819 0FFA                             l2931 0D02                             l2669 0DF8  
                           l2677 0D1F                             l2917 07A6                             l2909 078A  
                           l2693 0F3A                             l2685 0F12                             l2781 02FD  
                           l2773 02E7                             l2765 02D5                             l2757 02C0  
                           l2749 0298                             l2861 00C7                             l2853 009F  
                           l2845 0081                             l2837 0069                             l2829 003F  
                           l2941 0359                             l2933 0339                             l2925 0CFD  
                           l1981 0D11                             l2695 0479                             l2679 0D53  
                           l2919 07EC                             l2687 0F1D                             l2791 032A  
                           l2783 0302                             l2775 02ED                             l2767 02DA  
                           l2759 02C1                             l2871 010F                             l2863 00EB  
                           l2855 00A5                             l2847 008F                             l2839 0072  
                           l2951 0382                             l2943 0364                             l2935 033C  
                           l2927 0D00                             l1983 0D14                             l1975 07F3  
                           l2697 047C                             l2689 0F2B                             l2785 030D  
                           l2793 032D                             l2769 02DC                             l2777 02F0  
                           l2881 013C                             l2865 00F1                             l2857 00B2  
                           l2873 011B                             l2849 0096                             l2961 03A8  
                           l2953 0388                             l2945 0370                             l2937 0340  
                           l2929 0D01                             l1985 0D15                             l1977 0D08  
                           l2699 0480                             l2795 0332                             l2787 0318  
                           l2779 02F8                             l2891 0177                             l2883 0144  
                           l2875 012E                             l2867 00F5                             l2859 00C5  
                           l2971 0404                             l2963 03AC                             l2955 0396  
                           l2947 0379                             l2939 034E                             l1987 0D16  
                           l1979 0D10                             l2789 031B                             l2893 017F  
                           l2885 014A                             l2869 0100                             l2877 0131  
                           l2981 041B                             l2973 0406                             l2965 03BB  
                           l2957 039D                             l2949 037F                             l2797 0F9D  
                           l2895 0184                             l2887 014F                             l2879 013B  
                           l2991 042C                             l2983 0423                             l2975 040A  
                           l2967 03ED                             l2959 03A2                             l2799 0FA5  
                           l2897 0190                             l2889 015B                             l2993 0440  
                           l2969 03FA                             l2977 0412                             l2899 01A4  
                           l2995 0444                             l2979 041A                             l2997 044D  
                           l2989 0425                             l2999 0455                             ?_isr 0070  
                           STR_1 05D4                             STR_2 0586                             STR_3 05FE  
                           STR_4 0566                             STR_5 0576                             STR_6 05A3  
                           STR_7 0522                             STR_8 05E0                             STR_9 0533  
                           u1000 074B                             u1001 074A                             _T0CS 040D  
                           u1010 0751                             u1011 0750                             u1020 0757  
                           u1100 0D9A                             u1021 0756                             u1101 0D99  
                           u1030 076F                             u1031 076E                             u2000 0F93  
                           u1120 0ECA                             u1040 0775                             u2001 0F92  
                           u1121 0EC9                             u1041 0774                             u1210 0EA0  
                           u1050 077B                             u1211 0E9F                             u1051 077A  
                           u1140 0EDA                             u1220 0EAA                             u1060 0781  
                           u1141 0ED9                             u1221 0EA9                             u1205 0E94  
                           u1061 0780                             u1070 0D87                             u1135 0ECE  
                           u1071 0D86                             u1160 0EEB                             u1240 0EBD  
                           u1080 0D8E                             u1161 0EEA                             u1241 0EBC  
                           u1225 0EA6                             u1081 0D8D                             u1330 0DA4  
                           u1250 04F6                             u1090 0D93                             u1331 0DA3  
                           u1251 04F5                             u1155 0EDB                             u1235 0EB1  
                           u1091 0D92                             u1180 0EFF                             u1181 0EFE  
                           u1165 0EE7                             u1190 0E90                             u1175 0EF3  
                           u1191 0E8F                             u3007 0E40                             u1360 0DBE  
                           u1361 0DBD                             u1345 0DAB                             u3017 0FA1  
                           u1370 0D2F                             u1371 0D2E                             u1355 0DB2  
                           u3107 0F25                             u3027 0FB0                             u2420 0E5C  
                           u1380 0D3A                             u2421 0E58                             u3117 0D23  
                           u1381 0D39                             u3037 0FBE                             u2510 04AA  
                           u2511 04A9                             u3127 0E65                             u3047 0FD4  
                           u2600 02E2                             u2505 049E                             u3137 0E7A  
                           u2601 02E1                             u3057 0FE0                             u2530 04BB  
                           u2434 0E5F                             u2450 0E1E                             u2610 02ED  
                           u2531 04BA                             u3147 0E84                             u2451 0E1D  
                           u2611 02EC                             u3067 0FEE                             u2460 0F0D  
                           u2620 02F7                             u2700 00EB                             u2525 04AB  
                           u2445 0E6F                             u2461 0F0C                             u2621 02F6  
                           u2701 00EA                             u3077 0FFC                             u2550 04CF  
                           u2470 0480                             u2630 02FD                             u2710 013B  
                           u2551 04CE                             u2535 04B7                             u2471 047F  
                           u2631 02FC                             u2711 013A                             u3087 0108  
                           u2560 04D4                             u2480 048B                             u1920 0F4B  
                           u2720 0142                             u2640 0078                             u2800 037F  
                           u2561 04D3                             u2545 04C3                             u2481 048A  
                           u1921 0F4A                             u3097 0323                             u2721 0140  
                           u2705 00E7                             u2641 0077                             u2801 037E  
                           u2490 049A                             u1930 0F56                             u2570 02C0  
                           u2730 0143                             u2650 0081                             u2810 0388  
                           u2491 0499                             u1931 0F55                             u2571 02BF  
                           u2651 0080                             u2811 0387                             u1940 0F61  
                           u2580 02D0                             u2740 014A                             u2660 009B  
                           u2900 0462                             u2820 03A2                             u1941 0F60  
                           u2581 02CF                             u2741 0149                             u2661 009A  
                           u2901 0461                             u2821 03A1                             u2590 02D5  
                           u2750 014F                             u2670 009F                             u2910 0469  
                           u2830 03A8                             u2591 02D4                             u2751 014E  
                           u2671 009E                             u2911 0468                             u2831 03A7  
                           u1960 0F71                             u2760 017F                             u2680 00A5  
                           u2920 0473                             u2840 03AC                             u1961 0F70  
                           u2761 017E                             u2681 00A4                             u2921 0472  
                           u2905 045E                             u2841 03AB                             u1970 0F7B  
                           u2770 0184                             u2690 00B2                             u2850 03FA  
                           u2930 0E28                             u1971 0F7A                             u1955 0F65  
                           u2771 0183                             u2691 00B1                             u2851 03F9  
                           u2931 0E27                             _PEIE 005E                             u2780 01AB  
                           u2860 041A                             u2940 0E4E                             u2781 01AA  
                           u2861 0419                             u2941 0E4D                             u1990 0F8E  
                           u2790 07F1                             u2870 0421                             u2950 0D45  
                           u1991 0F8D                             u1975 0F77                             u2791 07F0  
                           u2695 00AE                             u2871 041F                             u2855 03F6  
                           u2951 0D44                             u2880 0422                             u2960 065A  
                           u1985 0F82                             u2961 0659                             u2890 042C  
                           u2970 067C                             u2891 042B                             u2971 067B  
                           i1l47 0DE1                             i1l49 0DE9                             u2987 064B  
                           u2997 0662                             _TMR0 0001                             _main 060F  
                           btemp 007E                             start 000C                ___bmul@multiplier 0074  
           ??_init_matrix_keypad 0072                   clcd_write@byte 0075                   clcd_write@mode 0072  
                          ??_isr 0070                            ?_main 0070                ??_convention_mode 0079  
                __end_of___awdiv 04DE                            STR_10 0511                            STR_11 0500  
                          STR_12 050E                            STR_20 0595                            STR_13 050E  
                          STR_21 05F0                            STR_14 05E8                            STR_22 0544  
                          STR_15 0604                            STR_23 05C8                            STR_16 05F8  
                          STR_24 05B0                            STR_17 060A                            STR_18 05BC  
                          STR_19 0555                  __end_of___awmod 0F9D                  ___awdiv@divisor 0072  
                __end_of___lwdiv 0F04                  __end_of___lwmod 0EC2                     ?_init_config 0070  
                ___awdiv@counter 0020                            _PORTD 0008                            _TRISB 0086  
                          _TRISD 0088                     ?_init_timer2 0070                  _set_time_screen 0024  
                          _nRBPU 040F               _read_matrix_keypad 0D7B                            main@i 0049  
                   ?_menu_screen 0070                            pclath 000A              ?_read_matrix_keypad 0070  
                          status 0003             set_temp@preheat_flag 003E                            wtemp0 007E  
                   ?_scan_keypad 0070                  __initialization 000F                     __end_of_main 06D9  
           ??_read_matrix_keypad 0074                           ??_main 0045                 ___awdiv@dividend 0074  
                         i1l2101 0DC9                           i1l2103 0DD8                           i1l2111 0DE8  
                         i1l2105 0DDA                           i1l2107 0DDF                           i1l2109 0DE6  
                         i1l2099 0DC3                           u171_20 0DC9                           u171_21 0DC8  
                         u172_20 0DD8                           u172_21 0DD7                           u173_20 0DDF  
                         u173_21 0DDE                           u174_20 0DE6                           u174_21 0DE5  
                         _TMR0IE 005D                           _TMR2IE 0461                           _TMR2IF 0061  
                         _TMR2ON 0092                           _TRISC1 0439                           _TRISC2 043A  
                         _TRISE1 0449                           _TRISE2 044A            __end_of_clear_display 0D29  
          operation_mode@minutes 0029            operation_mode@seconds 002B                           ___bmul 0D29  
        _init_display_controller 0F9D                  _temp_time_count 007A                           ___wmul 0D9E  
                      ??___awdiv 0076                        ??___awmod 0076               set_time_screen@key 0035  
                      ??___lwdiv 0076                        ??___lwmod 0076                           _memset 04DE  
        __end_of_set_time_screen 01D6                 ___awdiv@quotient 0022                  ___awmod@divisor 0072  
                ___awmod@counter 0076                     __pdataCOMMON 007B                 __end_of_set_temp 0479  
                         saved_w 007E          __end_of__initialization 0020              ___bmul@multiplicand 0072  
                 __pcstackCOMMON 0070         set_time_screen@key_count 0033                       __pbssBANK0 004B  
      ??_init_display_controller 0076                       _clcd_print 0DF0                       _clcd_putch 0D50  
                     _clcd_write 0E54                  _convention_mode 0D3C                       __pmaintext 060F  
                        ?___bmul 0072                          ?___wmul 0072                       __pintentry 0004  
                        ?_memset 0072                 ?_set_time_screen 0070                          _T2CKPS0 0090  
                        _T2CKPS1 0091                       __stringtab 0800                        ?_set_temp 0070  
             set_temp@blink_time 004E                          ___awdiv 0479                          ___awmod 0F46  
                        ___lwdiv 0EC2                          ___lwmod 0E8A                       _micro_mode 0E1F  
                        __ptext1 0CF3                          __ptext2 0E1F                          __ptext3 0D65  
                        __ptext4 07F3                          __ptext5 0D08                          __ptext6 0CFD  
                        __ptext7 0F9D                          __ptext8 0D3C                          __ptext9 0339  
                     _menu_index 0079  __end_of_init_display_controller 1000                __end_of_init_clcd 0D08  
               ___awmod@dividend 0074                   main@reset_flag 004A                          main@key 0048  
                        clrloop0 04F8             end_of_initialization 0020          __end_of_convention_mode 0D50  
                    set_temp@key 0043                          memset@c 0073                          memset@n 0075  
                        memset@p 0077                   _operation_mode 01D6                      ?_clcd_print 0076  
                    ?_clcd_putch 0078                      ?_clcd_write 0072                       ??_set_temp 0036  
                   __pstringtext 0500                       _time_count 0053                    clcd_print@str 0076  
         __end_of_operation_mode 0339                   _preheat_screen 0785           set_temp@temp_key_count 003F  
                 __end_of___bmul 0D3C                   __end_of___wmul 0DC3                    __pidataCOMMON 04FF  
                    ?_micro_mode 0070                     _control_flag 0052                   __end_of_memset 04F7  
            start_initialization 000F         operation_mode@pause_flag 002D                     scan_keypad@i 0072  
         read_matrix_keypad@mode 0074           read_matrix_keypad@once 007B                      __end_of_isr 0DF0  
         __end_of_preheat_screen 07F3                 ?_convention_mode 0070                  ?_operation_mode 0070  
                       ??___bmul 0073                         ??___wmul 0076                         ??_memset 0077  
                     memset@dest 0072                    ??_init_config 0078                    ??_init_timer2 0072  
                    __pbssCOMMON 0079                        ___latbits 0002                    __pcstackBANK0 0020  
              operation_mode@key 002E              _operation_mode_flag 0051                    ??_menu_screen 0020  
                ?_preheat_screen 0070                    ??_scan_keypad 0072                    _clear_display 0D18  
               ___lwdiv@dividend 0074                         ?___awdiv 0072                         ?___awmod 0072  
                       ?___lwdiv 0072                         ?___lwmod 0072                _start_mode_screen 0CF3  
                      __pstrings 0800               ?_start_mode_screen 0070              ??_start_mode_screen 0079  
               ___lwdiv@quotient 0076                        _init_clcd 0CFD              __end_of_init_config 0D7B  
            __end_of_init_timer2 0800         ?_init_display_controller 0070                interrupt_function 0004  
                 ___wmul@product 0076                   ?_clear_display 0070                        clear_ram0 04F7  
                   ??_clcd_print 0079                     ??_clcd_putch 0079       __end_of_init_matrix_keypad 0D18  
            __end_of_menu_screen 0F46                     ??_clcd_write 0073        __end_of_start_mode_screen 0CFD  
            __end_of_scan_keypad 0785                      __stringbase 0812                ___wmul@multiplier 0072  
             __end_of_clcd_print 0E1F               __end_of_clcd_putch 0D65               __end_of_clcd_write 0E8A  
        operation_mode@menu_flag 0028                       ?_init_clcd 0070            read_matrix_keypad@key 0075  
                  set_temp@blink 004D                    set_temp@value 003A        convention_mode@reset_flag 0044  
     __end_of_read_matrix_keypad 0D9E                     ??_micro_mode 0036               __end_of__stringtab 0812  
                    _init_config 0D65             set_time_screen@blink 004F             set_time_screen@field 0032  
                    _init_timer2 07F3             micro_mode@reset_flag 0039                  ___lwdiv@divisor 0072  
               ??_operation_mode 0025                  ___lwdiv@counter 0078                         __ptext10 0024  
                       __ptext11 01D6                         __ptext20 0785                         __ptext12 0D7B  
                       __ptext21 0D18                         __ptext13 06D9                         __ptext22 0D50  
                       __ptext14 0F04                         __ptext23 0DF0                         __ptext15 0E8A  
                       __ptext24 0E54                         __ptext16 0EC2                         __ptext25 0F46  
                       __ptext17 04DE                         __ptext26 0479                         __ptext18 0D9E  
                       __ptext27 0DC3                         __ptext19 0D29                      _menu_screen 0F04  
                ??_clear_display 0076                ??_set_time_screen 002F                      _scan_keypad 06D9  
             __end_of_micro_mode 0E54                        set_temp@i 0041       set_time_screen@blink_timer 0050  
                       _set_temp 0339                         _temp_arr 005C                         _time_arr 0054  
                   _set_temp$220 003C                         isr@count 004B                 ??_preheat_screen 0025  
                    ??_init_clcd 0078                         intlevel1 0000                 ___lwmod@dividend 0074  
                      stringcode 080A                  ___lwmod@divisor 0072                  ___lwmod@counter 0076  
                       stringtab 0800            menu_screen@reset_flag 0023  
